
rtthread-or1200.elf:     file format elf32-or32
rtthread-or1200.elf
architecture: or32, flags 0x00000112:
EXEC_P, HAS_SYMS, D_PAGED
start address 0x00002000

Program Header:
    LOAD off    0x00002000 vaddr 0x00000000 paddr 0x00000000 align 2**13
         filesz 0x00001f00 memsz 0x00001f00 flags r-x
    LOAD off    0x00004000 vaddr 0x00002000 paddr 0x00002000 align 2**13
         filesz 0x000187dc memsz 0x0001e8f0 flags rwx

Sections:
Idx Name          Size      VMA       LMA       File off  Algn
  0 .vectors      00001f00  00000000  00000000  00002000  2**0
                  CONTENTS, ALLOC, LOAD, READONLY, CODE
  1 .text         0001560c  00002000  00002000  00004000  2**2
                  CONTENTS, ALLOC, LOAD, READONLY, CODE
  2 .rodata       00003019  0001760c  0001760c  0001960c  2**2
                  CONTENTS, ALLOC, LOAD, READONLY, DATA
  3 .data         000001b4  0001a628  0001a628  0001c628  2**2
                  CONTENTS, ALLOC, LOAD, DATA
  4 .bss          00006114  0001a7dc  0001a7dc  0001c7dc  2**2
                  ALLOC
  5 .stack        00004000  000208f0  000208f0  0001c7dc  2**0
                  CONTENTS
  6 .debug_frame  00002c4c  00000000  00000000  000207dc  2**2
                  CONTENTS, READONLY, DEBUGGING
  7 .comment      00000051  00000000  00000000  00023428  2**0
                  CONTENTS, READONLY
SYMBOL TABLE:
00000000 l    d  .vectors	00000000 .vectors
00002000 l    d  .text	00000000 .text
0001760c l    d  .rodata	00000000 .rodata
0001a628 l    d  .data	00000000 .data
0001a7dc l    d  .bss	00000000 .bss
000208f0 l    d  .stack	00000000 .stack
00000000 l    d  .debug_frame	00000000 .debug_frame
00000000 l    d  .comment	00000000 .comment
00000000 l    df *ABS*	00000000 application.c
00002000 l     F .text	00000040 thread2_entry
00002040 l     F .text	00000040 thread1_entry
00000000 l    df *ABS*	00000000 startup.c
00000000 l    df *ABS*	00000000 board.c
00000000 l    df *ABS*	00000000 cache.c
00002454 l     F .text	000000b8 invalidate_icache_range
00000000 l    df *ABS*	00000000 serial.c
0000271c l     F .text	00000008 rt_uart_init
00002724 l     F .text	000000e8 rt_uart_write
0000280c l     F .text	000000cc rt_uart_read
000028d8 l     F .text	00000030 rt_uart_close
00002908 l     F .text	00000054 rt_uart_open
00000000 l    df *ABS*	00000000 clock.c
0001a7dc l     O .bss	00000004 rt_tick
00000000 l    df *ABS*	00000000 device.c
00000000 l    df *ABS*	00000000 idle.c
0001b090 l     O .bss	00000004 rt_thread_idle_hook
000031d8 l     F .text	0000003c rt_thread_idle_entry
0001a7e0 l     O .bss	000000b0 idle
0001a890 l     O .bss	00000800 rt_thread_stack
00000000 l    df *ABS*	00000000 ipc.c
00000000 l    df *ABS*	00000000 irq.c
00000000 l    df *ABS*	00000000 kservice.c
000057dc l     F .text	000002d4 print_number
00017770 l     O .rodata	00000011 small_digits.1685
0001775c l     O .rodata	00000011 large_digits.1686
00005ab0 l     F .text	000005cc vsnprintf
0001b198 l     O .bss	00000004 _errno
0001b094 l     O .bss	00000004 _console_device
0001b098 l     O .bss	00000100 rt_log_buf.1794
00000000 l    df *ABS*	00000000 mem.c
00006a6c l     F .text	000000d8 plug_holes
0001b1ac l     O .bss	00000004 heap_ptr
0001b1b0 l     O .bss	00000004 heap_end
0001b1ec l     O .bss	00000004 lfree
0001b19c l     O .bss	00000004 mem_size_aligned
0001b1a0 l     O .bss	00000004 used_mem
0001b1a4 l     O .bss	00000004 max_mem
0001b1f0 l     O .bss	00000004 rt_malloc_hook
0001b1a8 l     O .bss	00000004 rt_free_hook
0001b1b4 l     O .bss	00000038 heap_sem
00000000 l    df *ABS*	00000000 mempool.c
0001b1f8 l     O .bss	00000004 rt_mp_alloc_hook
0001b1f4 l     O .bss	00000004 rt_mp_free_hook
00000000 l    df *ABS*	00000000 object.c
0001b200 l     O .bss	00000004 rt_object_attach_hook
0001b1fc l     O .bss	00000004 rt_object_detach_hook
00000000 l    df *ABS*	00000000 scheduler.c
0001b208 l     O .bss	00000004 rt_scheduler_hook
0001b204 l     O .bss	00000002 rt_scheduler_lock_nest
00000000 l    df *ABS*	00000000 thread.c
0000818c l     F .text	000000c8 rt_thread_exit
00000000 l    df *ABS*	00000000 timer.c
0001b20c l     O .bss	00000004 rt_timer_timeout_hook
0001a6b8 l     O .data	00000008 rt_timer_list
00000000 l    df *ABS*	00000000 interrupt.c
00000000 l    df *ABS*	00000000 lib-utils.c
0001a6c0 l     O .data	00000004 lfsr.807
0001b210 l     O .bss	00000004 period.808
00000000 l    df *ABS*	00000000 stack.c
00000000 l    df *ABS*	00000000 support.c
00000000 l    df *ABS*	00000000 timer.c
00000000 l    df *ABS*	00000000 ethoc.c
00009e18 l     F .text	0000005c ethoc_set_mac_address
00009e74 l     F .text	00000028 ethoc_halt
00009e9c l     F .text	00000224 ethoc_send
000178c0 l     O .rodata	0000000b __func__.1968
0000a0c0 l     F .text	00000268 ethoc_init
000178cc l     O .rodata	0000000b __func__.1979
000178b0 l     O .rodata	00000010 __func__.1998
00000000 l    df *ABS*	00000000 uipif.c
0001b214 l     O .bss	000000b0 eth_thread
0001b2c4 l     O .bss	00000400 eth_thread_stack
00000000 l    df *ABS*	00000000 psock.c
0000ac84 l     F .text	000000a0 send_data
00000000 l    df *ABS*	00000000 uip_arp.c
0001b6c8 l     O .bss	00000001 i
0001b6cc l     O .bss	00000058 arp_table
0001b724 l     O .bss	00000001 arptime
0001b725 l     O .bss	00000001 tmpage
0001b726 l     O .bss	00000001 c
0001b6c4 l     O .bss	00000004 ipaddr
000178d8 l     O .rodata	00000006 broadcast_ethaddr
00000000 l    df *ABS*	00000000 uip.c
0000bca4 l     F .text	000000bc chksum
0000bd60 l     F .text	00000078 upper_layer_chksum
0001b730 l     O .bss	00000002 ipid
0000bea8 l     F .text	00000060 uip_add_rcv_nxt
0001b72e l     O .bss	00000001 c
0001b732 l     O .bss	00000002 lastport
0001b728 l     O .bss	00000004 iss
0001b72c l     O .bss	00000002 tmp16
0001b72f l     O .bss	00000001 opt
00000000 l    df *ABS*	00000000 uip-fw.c
0001b758 l     O .bss	00000004 netifs
0001b754 l     O .bss	00000004 defaultnetif
0001b734 l     O .bss	00000020 fwcache
00000000 l    df *ABS*	00000000 uiplib.c
00000000 l    df *ABS*	00000000 uip-neighbor.c
0001b75c l     O .bss	00000060 entries
00000000 l    df *ABS*	00000000 uip-split.c
00000000 l    df *ABS*	00000000 uip_timer.c
00000000 l    df *ABS*	00000000 httpd.c
0000e57c l     F .text	00000468 send_headers
0000e9e4 l     F .text	000000c8 send_file
0000eaac l     F .text	00000064 generate_part_of_file
0000eb50 l     F .text	00000678 handle_connection
0001b7bc l     O .bss	00000004 strtok_pos.1937
00000000 l    df *ABS*	00000000 httpd-cgi.c
0000fb60 l     F .text	00000020 nullfunction
0000fb80 l     F .text	0000009c net_stats
0000fcd0 l     F .text	00000058 generate_net_stats
0000fc1c l     F .text	000000b4 tcp_stats
0000fd28 l     F .text	00000164 generate_tcp_stats
00017924 l     O .rodata	00000024 states
0000fe8c l     F .text	00000080 file_stats
0000ff0c l     F .text	00000048 generate_file_stats
0001a7cc l     O .data	00000010 calls
00017948 l     O .rodata	00000008 file
00017950 l     O .rodata	00000008 tcp
00017958 l     O .rodata	00000008 net
00017960 l     O .rodata	00000007 closed
00017968 l     O .rodata	00000009 syn_rcvd
00017974 l     O .rodata	00000009 syn_sent
00017980 l     O .rodata	0000000c established
0001798c l     O .rodata	0000000b fin_wait_1
00017998 l     O .rodata	0000000b fin_wait_2
000179a4 l     O .rodata	00000008 closing
000179ac l     O .rodata	0000000a time_wait
000179b8 l     O .rodata	00000009 last_ack
00000000 l    df *ABS*	00000000 httpd-fs.c
00010008 l     F .text	00000090 httpd_fs_strcmp
0001b7c0 l     O .bss	00000014 count
00017a8c l     O .rodata	00000343 data_stats_shtml
00017dd0 l     O .rodata	000000de data_tcp_shtml
00017eb0 l     O .rodata	000000e2 data_processes_shtml
00017f94 l     O .rodata	000000cf data_fade_png
00018064 l     O .rodata	000004f3 data_files_shtml
00018558 l     O .rodata	00000282 data_header_html
000187dc l     O .rodata	000000ab data_404_html
00018888 l     O .rodata	0000001f data_footer_html
000188a8 l     O .rodata	00000402 data_style_css
00018cac l     O .rodata	00000376 data_index_html
00000000 l    df *ABS*	00000000 http-strings.c
00000000 l    df *ABS*	00000000 cmd.c
00010230 l     F .text	0000006c str_common
0001948c l     O .rodata	00000040 C.7.2845
000104cc l     F .text	00000074 show_wait_queue
0001b7d4 l     O .bss	00000004 dummy
00000000 l    df *ABS*	00000000 finsh_compiler.c
000112fc l     F .text	000001fc finsh_type_check
000114f8 l     F .text	000017d8 finsh_compile
00000000 l    df *ABS*	00000000 finsh_error.c
000195b4 l     O .rodata	0000003c finsh_error_string_table
00000000 l    df *ABS*	00000000 finsh_heap.c
0001b7dc l     O .bss	00000004 free_list
0001b7d8 l     O .bss	00000004 allocate_list
00000000 l    df *ABS*	00000000 finsh_init.c
00000000 l    df *ABS*	00000000 finsh_node.c
00000000 l    df *ABS*	00000000 finsh_ops.c
00000000 l    df *ABS*	00000000 finsh_parser.c
0001459c l     F .text	0000018c proc_type
000197a8 l     O .rodata	00000034 CSWTCH.2
00014728 l     F .text	00000064 proc_identifier
0001478c l     F .text	00000090 make_sys_node
0001481c l     F .text	000000fc proc_assign_expr
0001515c l     F .text	000000b8 proc_exclusive_or_expr
00014918 l     F .text	00000084 proc_expr_statement
0001499c l     F .text	0000041c proc_cast_expr
00014db8 l     F .text	000000f8 proc_multiplicative_expr
00014eb0 l     F .text	00000120 proc_additive_expr
00014fd0 l     F .text	000000d4 proc_shift_expr
000150a4 l     F .text	000000b8 proc_and_expr
00015214 l     F .text	0000036c proc_variable_decl
00000000 l    df *ABS*	00000000 finsh_token.c
000156e0 l     F .text	000000b4 token_next_char
000199b0 l     O .rodata	00000040 finsh_name_table
000199f0 l     O .rodata	0000003c CSWTCH.12
00000000 l    df *ABS*	00000000 finsh_var.c
00000000 l    df *ABS*	00000000 finsh_vm.c
00000000 l    df *ABS*	00000000 shell.c
00016918 l     F .text	00000028 finsh_rx_ind
0001b7e4 l     O .bss	000000b0 finsh_thread
0001b894 l     O .bss	00002000 finsh_thread_stack
00000000 l    df *ABS*	00000000 symbol.c
000036d8 g     F .text	000000d0 rt_sem_control
0000e0f0 g     F .text	0000004c uip_neighbor_periodic
00006f2c g     F .text	00000050 rt_calloc
00017584 g     O .text	0000000c __fsym_list_thread
0000eb10 g     F .text	00000040 strcpy
00009c20 g       .text	00000000 UsrISR
00010c74 g     F .text	0000017c list_thread
0001710c g     F .text	000002e8 finsh_thread_entry
00007b4c g     F .text	0000000c rt_object_is_systemobject
000065f4 g     F .text	00000084 rt_strncpy
0001926c g     O .rodata	00000007 http_shtml
00009444 g     F .text	00000108 rt_hw_stack_init
00013bf4 g     F .text	0000002c OP_or_word
0000aba0 g     F .text	000000e4 resolv_found
00017a78 g     O .rodata	00000014 file_index_html
00019024 g     O .rodata	00000008 http_http
00003d0c g     F .text	00000058 rt_event_init
0001fa24 g     O .bss	00000008 arp_timer
00019378 g     O .rodata	0000000d __fsym_list_mailbox_name
0000c204 g     F .text	000000bc uip_unlisten
000079f4 g     F .text	000000e8 rt_object_allocate
000140a0 g     F .text	00000034 OP_st_word
00002548 g     F .text	00000050 checkicache
0001904c g     O .rodata	00000009 http_10
00017a00 g     O .rodata	00000014 file_fade_png
000050a8 g     F .text	00000150 rt_mq_send
0000f8ac g     F .text	000000d0 strtok_r
00007d2c g     F .text	000000e8 rt_system_scheduler_start
00008988 g     F .text	00000100 rt_thread_find
0001da74 g     O .bss	00000004 rt_interrupt_to_thread
000191e0 g     O .rodata	0000001c http_content_type_png
0001d8b0 g     O .bss	000000a0 uart_device
000075ec g     F .text	000001b4 rt_mp_alloc
0001db80 g     O .bss	00000038 eth_rx_sem
000191a8 g     O .rodata	0000001b http_content_type_css
00009a18 g       .text	00000000 TimerISR
00019308 g     O .rodata	00000009 __fsym_list_sem_name
000030e4 g     F .text	0000000c rt_device_set_tx_complete
000023c0 g     F .text	00000074 invalidate_dcache_range
000030d8 g     F .text	0000000c rt_device_set_rx_indicate
00008754 g     F .text	00000018 rt_thread_delay
00006f7c g     F .text	000000f8 rt_free
0001da78 g     O .bss	00000004 rt_interrupt_from_thread
0001fa34 g     O .bss	00000002 uip_len
00006bd0 g     F .text	000000f8 rt_system_heap_init
000157f4 g     F .text	00000160 token_get_string
0001a6c4 g     O .data	00000006 uip_ethaddr
00002608 g     F .text	0000004c dcache_enable
00013a24 g     F .text	00000034 OP_mod_byte
0000bde8 g     F .text	000000c0 uip_add32
000078ac g     F .text	00000010 rt_object_put_sethook
00008eac g     F .text	0000013c rt_timer_check
0000786c g     F .text	00000010 rt_object_attach_sethook
00007fa4 g     F .text	00000078 rt_schedule_insert_thread
00010a48 g     F .text	00000108 list_sem
000206a0 g     O .bss	00000004 global_sysvar_list
00002ea4 g     F .text	00000110 rt_device_open
0000ae60 g     F .text	000001a8 psock_generator_send
00002bb4 g     F .text	000000d8 rt_device_init_all
000204e0 g     O .bss	00000080 finsh_heap
0001029c g     F .text	0000015c list
0000f6f0 g     F .text	0000003c simple_strtol
00017784 g     O .rodata	00000009 __fsym_list_mem_name
0001d89c g     O .bss	00000004 _sysvar_table_begin
000133f8 g     F .text	0000006c finsh_node_allocate
00007b58 g     F .text	00000130 rt_object_find
0000e0c0 g     F .text	00000030 uip_neighbor_init
000192b4 g     O .rodata	00000010 __fsym_hello_desc
000165e0 g     F .text	00000118 finsh_sysvar_lookup
00017410 g     F .text	0000001c finsh_system_var_init
0001dbb8 g     O .bss	00000038 lock
0000b01c g     F .text	0000005c psock_newdata
00003100 g     F .text	000000d8 rt_thread_idle_excute
00008650 g     F .text	00000074 rt_thread_suspend
000068f8 g     F .text	00000084 rt_kprintf
000057c8 g     F .text	00000014 rt_interrupt_get_nest
00017550 g       .text	00000000 _etext
0001a7dc g       .bss	00000000 _sbss
00004c70 g     F .text	0000011c rt_mb_control
0001a628 g       .data	00000000 sdata
000179c4 g     O .rodata	00000014 file_stats_shtml
00010c58 g     F .text	0000001c version
00008148 g     F .text	00000044 rt_thread_timeout
00013b70 g     F .text	0000002c OP_and_word
000175c0 g     O .text	0000000c __fsym_list_msgqueue
0001933c g     O .rodata	00000015 __fsym_list_event_desc
000190b0 g     O .rodata	00000009 http_referer
00010764 g     F .text	00000118 list_mailbox
0000c370 g     F .text	00001740 uip_process
00013974 g     F .text	0000002c OP_sub_dword
00013898 g     F .text	0000002c OP_add_byte
000175fc g       .text	00000000 __fsymtab_end
00004584 g     F .text	000000e8 rt_mb_delete
000078bc g     F .text	00000008 rt_system_object_init
00010b50 g     F .text	00000024 hello
00003018 g     F .text	00000044 rt_device_read
000208ec g     O .bss	00000004 shell
0000837c g     F .text	00000080 rt_thread_detach
0000b008 g     F .text	00000014 psock_datalen
00009328 g     F .text	00000034 memcpy
00013580 g     F .text	00000090 finsh_node_new_char
0001742c g     F .text	00000124 finsh_system_init
0000ad24 g     F .text	0000013c psock_send
00013de0 g     F .text	0000002c OP_shr_word
00017560 g       .text	00000000 __DTOR_END__
0000250c g     F .text	0000003c flush_cache
0001fa38 g     O .bss	00000004 uip_sappdata
0001dbf0 g     O .bss	00000010 NetRxPackets
00008a98 g     F .text	0000008c rt_timer_init
0000e2c4 g     F .text	00000084 uip_neighbor_lookup
00006a50 g     F .text	0000001c rt_free_align
00019110 g     O .rodata	0000005b http_header_404
00009b60 g       .text	00000000 timer_switch_interrupt_do
00003214 g     F .text	00000058 rt_thread_idle_init
0001fa3c g     O .bss	00000004 uip_acc32
0000bf2c g     F .text	0000003c uip_ipchksum
0000f4a0 g     F .text	0000003c tolower
00004f04 g     F .text	00000098 rt_mq_delete
000175a8 g     O .text	0000000c __fsym_list_mutex
00012db4 g     F .text	00000014 finsh_error_set
00010df0 g     F .text	0000050c list_prefix
0001d898 g     O .bss	00000004 _syscall_table_end
00007c98 g     F .text	00000094 rt_system_scheduler_init
00002c8c g     F .text	000000f4 rt_device_find
00009980 g       .text	00000000 rt_hw_context_switch_to
000044d4 g     F .text	000000b0 rt_mb_create
00013b18 g     F .text	0000002c OP_mul_dword
00013c20 g     F .text	0000002c OP_or_dword
0001da7c g     O .bss	00000001 rt_thread_switch_interrupt_flag
00016be0 g     F .text	00000014 finsh_get_device
0001a7dc g       .data	00000000 edata
000133cc g     F .text	0000002c finsh_node_init
00013e38 g     F .text	00000034 OP_ld_byte
0000684c g     F .text	00000020 rt_sprintf
0000c2c0 g     F .text	000000b0 uip_listen
00013698 g     F .text	00000088 finsh_node_new_long
00013b44 g     F .text	0000002c OP_and_byte
00000000 g       *ABS*	00000000 __DYNAMIC
0001944c g     O .rodata	0000001a __fsym_list_desc
0000670c g     F .text	00000038 rt_strcmp
0001a628 g       .data	00000000 _sdata
0001756c g     O .text	0000000c __fsym_hello
0000e348 g     F .text	00000174 uip_split_output
00008878 g     F .text	00000110 rt_thread_control
000140f8 g     F .text	00000018 OP_pop
00019444 g     O .rodata	00000005 __fsym_list_name
00009260 g     F .text	00000048 rt_hw_context_switch_interrupt
0001a7dc g       .bss	00000000 sbss
000025b8 g     F .text	00000050 checkdcache
0000db68 g     F .text	0000018c uip_fw_output
0000e244 g     F .text	00000080 uip_neighbor_update
000175cc g     O .text	0000000c __fsym_list_mempool
00020764 g     O .bss	00000080 text_segment
000095bc g     F .text	0000003c TimerDisable
000083fc g     F .text	00000138 rt_thread_create
00008534 g     F .text	00000064 rt_thread_delete
00013bc8 g     F .text	0000002c OP_or_byte
000193fc g     O .rodata	0000000b __fsym_list_timer_name
000164c0 g     F .text	00000094 finsh_var_lookup
000130a4 g     F .text	0000027c finsh_heap_allocate
000192cc g     O .rodata	00000023 __fsym_version_desc
00008598 g     F .text	000000b8 rt_thread_yield
00002080 g     F .text	00000098 rt_application_init
00014078 g     F .text	00000028 OP_st_byte
00006cc8 g     F .text	00000264 rt_malloc
00012e68 g     F .text	0000023c finsh_heap_free
0000b224 g     F .text	000001d0 psock_readbuf
000175fc g     O .text	00000010 __vsym_dummy
0001fa40 g     O .bss	00000001 uip_flags
00003630 g     F .text	000000a8 rt_sem_release
00017590 g     O .text	0000000c __fsym_list_sem
00003df4 g     F .text	00000050 rt_event_create
0000f41c g     F .text	00000084 strncasecmp
00004f9c g     F .text	0000010c rt_mq_create
000248f0 g       .stack	00000000 stack
000204d4 g     O .bss	00000004 finsh_compile_pc
000175f0 g     O .text	0000000c __fsym_list
0001fa2c g     O .bss	00000008 periodic_timer
00015794 g     F .text	0000003c finsh_token_init
0000436c g     F .text	00000088 rt_mb_init
00019034 g     O .rodata	00000005 http_301
000030f0 g     F .text	00000010 rt_thread_idle_sethook
00019388 g     O .rodata	00000018 __fsym_list_mailbox_desc
00008b24 g     F .text	00000058 rt_timer_detach
00019470 g     O .rodata	00000019 __vsym_dummy_desc
00008b7c g     F .text	00000088 rt_timer_create
000193d0 g     O .rodata	0000000d __fsym_list_mempool_name
00003d04 g     F .text	00000008 rt_mutex_control
000032cc g     F .text	00000090 rt_sem_detach
00002300 g     F .text	0000004c icache_enable
0000697c g     F .text	00000068 rt_show_version
000208f0 g       .bss	00000000 _ebss
00003904 g     F .text	00000090 rt_mutex_delete
000173f4 g     F .text	0000001c finsh_system_function_init
0001916c g     O .rodata	0000001d http_content_type_plain
00003ed4 g     F .text	0000016c rt_event_send
00007548 g     F .text	000000a4 rt_mp_delete
00002270 g     F .text	00000060 rt_hw_board_init
0000f3e0 g     F .text	0000003c strrchr
00016554 g     F .text	0000008c finsh_sysvar_append
00008a88 g     F .text	00000010 rt_timer_timeout_sethook
000030a0 g     F .text	00000038 rt_device_control
00013a8c g     F .text	00000034 OP_mod_dword
0000876c g     F .text	000000ac rt_thread_resume
000207e4 g     O .bss	00000100 finsh_vm_stack
000204dc g     O .bss	00000001 global_errno
0000e13c g     F .text	00000108 uip_neighbor_add
00002118 g     F .text	000000b4 rtthread_startup
0000234c g     F .text	00000074 flush_dcache_range
0001a7e0 g       .bss	00000000 ___bss_start
0001335c g     F .text	00000010 finsh_stack_bottom
000139cc g     F .text	0000002c OP_div_word
00009d58 g       .text	00000000 isr_switch_interrupt_do
000193a0 g     O .rodata	0000000e __fsym_list_msgqueue_name
00019634 g     O .rodata	000000c4 op_table
00008e14 g     F .text	00000098 rt_timer_control
000078c4 g     F .text	00000024 rt_object_get_information
0001d960 g     O .bss	00000100 rt_thread_priority_table
0001929c g     O .rodata	00000005 http_text
00013e0c g     F .text	0000002c OP_shr_dword
0001918c g     O .rodata	0000001c http_content_type_html
0001d954 g     O .bss	00000004 rt_object_put_hook
0000f318 g     F .text	00000050 strcat
00019074 g     O .rodata	0000000a http_texthtml
0000789c g     F .text	00000010 rt_object_take_sethook
00002d80 g     F .text	0000007c rt_device_register
00002af0 g     F .text	00000034 rt_tick_set
000063ac g     F .text	00000094 rt_memmove
00013cf0 g     F .text	00000020 OP_bw_word
0000e53c g     F .text	00000040 timer_expired
00013c4c g     F .text	0000002c OP_xor_byte
000208f0 g       .bss	00000000 end
00003618 g     F .text	00000018 rt_sem_trytake
0000fb48 g     F .text	00000018 httpd_init
000157d0 g     F .text	00000024 finsh_token_get_token
00013948 g     F .text	0000002c OP_sub_word
00007074 g     F .text	000001dc rt_realloc
0001015c g     F .text	0000003c httpd_fs_init
0000b57c g     F .text	00000260 uip_arp_update
00017a50 g     O .rodata	00000014 file_footer_html
000139f8 g     F .text	0000002c OP_div_dword
0000fa00 g     F .text	00000148 httpd_appcall
00017550 g       .text	00000000 __CTOR_LIST__
000156bc g     F .text	00000024 finsh_parser_init
0001065c g     F .text	00000108 list_msgqueue
00013464 g     F .text	0000011c finsh_node_new_id
000162e0 g     F .text	0000002c finsh_var_init
0001908c g     O .rodata	00000007 http_host
00009394 g     F .text	0000005c memchr
00009558 g     F .text	0000000c mfspr
00017a3c g     O .rodata	00000014 file_404_html
00006744 g     F .text	00000038 rt_strlen
0000788c g     F .text	00000010 rt_object_trytake_sethook
00013fdc g     F .text	00000020 OP_ld_value_word_stack
00016c48 g     F .text	00000050 finsh_auto_complete
000191fc g     O .rodata	0000001c http_content_type_gif
00006bc0 g     F .text	00000010 rt_free_sethook
0001da60 g     O .bss	00000001 rt_current_priority
000208f0 g       .bss	00000000 __end
0000bf68 g     F .text	00000018 uip_tcpchksum
00013ac0 g     F .text	0000002c OP_mul_byte
000038a0 g     F .text	00000064 rt_mutex_create
000093f0 g     F .text	00000054 rand
00009184 g     F .text	0000004c rt_hw_interrupt_unmask
00006808 g     F .text	00000020 rt_snprintf
0000c008 g     F .text	000001fc uip_connect
00010948 g     F .text	00000100 list_event
000193e0 g     O .rodata	0000001b __fsym_list_mempool_desc
0000db14 g     F .text	00000054 uip_fw_init
00017a28 g     O .rodata	00000014 file_header_html
0001da80 g     O .bss	00000100 int_handlers
000091d0 g     F .text	00000090 rt_hw_trap_irq
000042a4 g     F .text	000000c8 rt_event_control
0000f1e0 g     F .text	000000a4 strlcpy
0000f284 g     F .text	00000094 strncmp
0001a628 g     O .data	00000090 rt_object_container
00019094 g     O .rodata	00000003 http_crnl
00002dfc g     F .text	000000a8 rt_device_init
00013d30 g     F .text	0000002c OP_shl_byte
000175e4 g     O .text	0000000c __fsym_list_device
00019044 g     O .rodata	00000005 http_get
0000f1c8 g     F .text	00000018 strncpy
00017a14 g     O .rodata	00000014 file_files_shtml
00008fe8 g     F .text	00000038 rt_timer_next_timeout_tick
00019080 g     O .rodata	0000000b http_location
00019294 g     O .rodata	00000005 http_jpg
00002b24 g     F .text	00000050 rt_tick_increase
0001fa44 g     O .bss	00000004 uip_appdata
0000a80c g     F .text	0000004c eth_thread_entry
00016c30 g     F .text	00000018 finsh_get_echo
00006b44 g     F .text	0000006c list_mem
0001fa48 g     O .bss	00000004 uip_conn
00019360 g     O .rodata	00000015 __fsym_list_mutex_desc
00009030 g     F .text	000000a0 rt_hw_interrupt_init
00008d7c g     F .text	00000098 rt_timer_stop
00015954 g     F .text	0000098c finsh_token_token
000090d0 g     F .text	00000064 rt_hw_interrupt_install
00013d88 g     F .text	0000002c OP_shl_dword
0000f97c g     F .text	0000001c strtok
00008c04 g     F .text	00000058 rt_timer_delete
000139a0 g     F .text	0000002c OP_div_byte
00010098 g     F .text	000000c4 httpd_fs_open
0001927c g     O .rodata	00000005 http_css
000169d8 g     F .text	00000020 isalpha
0000a644 g     F .text	00000134 ethoc_initialize
0000f368 g     F .text	00000078 strncat
0001fa4c g     O .bss	000003fc uip_conns
00007444 g     F .text	00000104 rt_mp_create
00002b74 g     F .text	00000024 rt_tick_from_millisecond
0001d894 g     O .bss	00000004 _syscall_table_begin
000095f8 g     F .text	00000034 TimerDisableInterrupt
0000df9c g     F .text	00000040 uip_fw_periodic
0000a5b8 g     F .text	0000008c ethoc_recv
0000607c g     F .text	00000058 rt_get_errno
0001a6cc g     O .data	00000100 _ctype
00016800 g     F .text	00000118 finsh_syscall_lookup
00013f04 g     F .text	0000005c OP_ld_value_byte
00007c88 g     F .text	00000010 rt_scheduler_sethook
00016978 g     F .text	00000060 strdup
0001630c g     F .text	00000100 finsh_var_insert
0000b9c4 g     F .text	000002e0 uip_arp_out
0000df8c g     F .text	00000010 uip_fw_default
0001d8a0 g     O .bss	00000004 _sysvar_table_end
0000981c g       .text	00000000 _align
0001391c g     F .text	0000002c OP_sub_byte
00013b9c g     F .text	0000002c OP_and_dword
000080b0 g     F .text	00000030 rt_enter_critical
000086c4 g     F .text	00000090 rt_thread_sleep
0001a7e0 g       .bss	00000000 __bss_start
00006828 g     F .text	00000024 rt_vsprintf
00003e44 g     F .text	00000090 rt_event_delete
00013d5c g     F .text	0000002c OP_shl_word
0000466c g     F .text	000002d8 rt_mb_send_wait
00003810 g     F .text	00000090 rt_mutex_detach
00019058 g     O .rodata	00000009 http_11
0000ab78 g     F .text	00000028 uip_log
00002b98 g     F .text	0000001c rt_device_unregister
00005790 g     F .text	00000038 rt_interrupt_leave
00013eac g     F .text	00000058 OP_ld_dword
000191c4 g     O .rodata	0000001c http_content_type_text
00009028 g     F .text	00000008 rt_system_timer_thread_init
00008254 g     F .text	00000118 rt_thread_init
0000954c g     F .text	0000000c mtspr
00003d64 g     F .text	00000090 rt_event_detach
000175fc g       .text	00000000 __vsymtab_start
0001903c g     O .rodata	00000005 http_302
00016b14 g     F .text	00000020 isprint
000166f8 g     F .text	00000088 finsh_vm_run
00004944 g     F .text	00000018 rt_mb_send
00013d10 g     F .text	00000020 OP_bw_dword
00004040 g     F .text	00000264 rt_event_recv
0001d950 g     O .bss	00000001 rt_interrupt_nest
000043f4 g     F .text	000000e0 rt_mb_detach
00017558 g       .text	00000000 __CTOR_END__
000021e8 g     F .text	00000088 rt_hw_console_output
00017578 g     O .text	0000000c __fsym_version
0000a924 g     F .text	00000028 uip_sys_init
0001d958 g     O .bss	00000004 rt_object_take_hook
00016940 g     F .text	00000038 strcmp
0000a8cc g     F .text	00000058 eth_system_device_init
00010b74 g     F .text	000000e4 list_timer
00017558 g       .text	00000000 __DTOR_LIST__
00019064 g     O .rodata	0000000f http_content_type
00005634 g     F .text	00000124 rt_mq_control
00013398 g     F .text	00000034 finsh_reset
000092a8 g     F .text	0000003c rt_hw_interrupt_disable
00003994 g     F .text	00000230 rt_mutex_take
00008818 g     F .text	00000060 rt_thread_startup
000022d0 g     F .text	00000030 icache_disable
0000b3f4 g     F .text	00000028 psock_init
0001da64 g     O .bss	00000004 rt_current_thread
00013720 g     F .text	000000e8 finsh_node_new_string
0000686c g     F .text	00000010 rt_console_get_device
00002684 g     F .text	00000098 cache_init
00006440 g     F .text	00000064 rt_memcmp
0000b7dc g     F .text	000001e8 uip_arp_arpin
00013c78 g     F .text	0000002c OP_xor_word
0000a858 g     F .text	00000074 eth_device_init
00013610 g     F .text	00000088 finsh_node_new_int
000190bc g     O .rodata	00000054 http_header_200
00019354 g     O .rodata	0000000b __fsym_list_mutex_name
0000f7fc g     F .text	000000b0 strcspn
00019468 g     O .rodata	00000006 __vsym_dummy_name
0001da68 g     O .bss	00000004 rt_thread_ready_priority_group
000069e4 g     F .text	0000006c rt_malloc_align
000072a0 g     F .text	00000010 rt_mp_alloc_sethook
0001640c g     F .text	000000b4 finsh_var_delete
000192a4 g     O .rodata	00000005 http_txt
00009134 g     F .text	00000050 rt_hw_interrupt_mask
0000ff54 g     F .text	000000b4 httpd_cgi
00013ffc g     F .text	0000005c OP_ld_value_dword
00012e04 g     F .text	00000064 finsh_heap_init
00002a40 g     F .text	00000098 rt_hw_serial_init
0001da6c g     O .bss	00000008 rt_thread_defunct
0000b48c g     F .text	000000f0 uip_arp_timer
0000495c g     F .text	00000314 rt_mb_recv
0001fe48 g     O .bss	0000000a uip_listenports
0000962c g     F .text	00000034 TimerClearInterrupt
0001d8ac g     O .bss	00000004 current_dev
0001fe54 g     O .bss	00000004 uip_draddr
0000326c g     F .text	00000060 rt_sem_init
00006198 g     F .text	00000104 rt_memset
000103f8 g     F .text	000000d4 list_device
00013aec g     F .text	0000002c OP_mul_word
0001fe58 g     O .bss	00000030 uip_stat
00004000 g       *ABS*	00000000 _min_stack
000175b4 g     O .text	0000000c __fsym_list_mailbox
00019218 g     O .rodata	0000001d http_content_type_jpg
000073a8 g     F .text	0000009c rt_mp_detach
00006678 g     F .text	00000094 rt_strncmp
000208f0 g       .bss	00000000 ebss
0000e4d4 g     F .text	0000002c timer_set
0001dc00 g     O .bss	00000004 NetTxPacket
0001760c g       .text	00000000 __vsymtab_end
000175d8 g     O .text	0000000c __fsym_list_timer
0000e514 g     F .text	00000028 timer_restart
000138c4 g     F .text	0000002c OP_add_word
00020560 g     O .bss	00000140 global_node_table
0000798c g     F .text	00000068 rt_object_detach
0000e500 g     F .text	00000014 timer_reset
0000295c g     F .text	000000e4 rt_hw_serial_isr_1
000138f0 g     F .text	0000002c OP_add_dword
000179d8 g     O .rodata	00000014 file_tcp_shtml
000021cc g     F .text	0000001c rt_hw_timer_handler
000192ac g     O .rodata	00000006 __fsym_hello_name
0000787c g     F .text	00000010 rt_object_detach_sethook
000204d8 g     O .bss	00000004 finsh_compile_sp
000060d4 g     F .text	00000060 rt_set_errno
00009020 g     F .text	00000008 rt_system_timer_init
0000dfdc g     F .text	000000e4 uiplib_ipaddrconv
00007250 g     F .text	00000050 rt_memory_info
00016e00 g     F .text	000001c8 finsh_handle_history
0000801c g     F .text	00000094 rt_schedule_remove_thread
00005758 g     F .text	00000038 rt_interrupt_enter
00009660 g       .text	00000000 _reset
00009848 g       .text	00000000 _rt_hw_context_switch
0000bf08 g     F .text	00000024 uip_chksum
0000f518 g     F .text	000001d8 simple_strtoul
00015580 g     F .text	0000013c finsh_parser_run
000051f8 g     F .text	00000140 rt_mq_urgent
00005338 g     F .text	000002fc rt_mq_recv
00014058 g     F .text	00000020 OP_ld_value_dword_stack
000092e4 g     F .text	0000001c rt_hw_interrupt_enable
0000a778 g     F .text	00000094 rt_hw_ethoc_isr
00017560 g     O .text	0000000c __fsym_list_mem
0001a7dc g       .data	00000000 _edata
00013ca4 g     F .text	0000002c OP_xor_dword
00019264 g     O .rodata	00000006 http_html
000208f0 g       .bss	00000000 _end
0000b078 g     F .text	000001ac psock_readto
0000dab0 g     F .text	00000008 htons
00002ad8 g     F .text	00000008 rt_system_tick_init
000080e0 g     F .text	00000068 rt_exit_critical
000208e4 g     O .bss	00000004 finsh_pc
00002598 g     F .text	00000020 dcache_status
0001087c g     F .text	000000cc list_mutex
0000b41c g     F .text	00000070 uip_arp_init
00016b34 g     F .text	000000ac finsh_set_device
00016bf4 g     F .text	0000003c finsh_set_echo
00016c98 g     F .text	00000168 finsh_run_line
0000df74 g     F .text	00000018 uip_fw_register
0000dcf4 g     F .text	00000280 uip_fw_forward
00002fb4 g     F .text	00000064 rt_device_close
0000836c g     F .text	00000010 rt_thread_self
00013e6c g     F .text	00000040 OP_ld_word
00004d8c g     F .text	000000e8 rt_mq_init
0001942c g     O .rodata	00000016 __fsym_list_device_desc
0001d8a4 g     O .bss	00000004 tid1
0001d8a8 g     O .bss	00000004 tid2
00013890 g     F .text	00000008 OP_no_op
000072c0 g     F .text	000000e8 rt_mp_init
000192fc g     O .rodata	0000000c __fsym_list_thread_desc
000064a4 g     F .text	000000e8 rt_strstr
00010198 g     F .text	00000098 httpd_fs_count
00003bc4 g     F .text	00000140 rt_mutex_release
00010540 g     F .text	0000011c list_mempool
00007adc g     F .text	00000070 rt_object_delete
00014110 g     F .text	0000048c OP_call
00002ae0 g     F .text	00000010 rt_tick_get
00019098 g     O .rodata	0000000c http_index_html
000169f8 g     F .text	0000011c atoi
000140d4 g     F .text	00000024 OP_st_dword
0000658c g     F .text	00000068 rt_strcasecmp
00019330 g     O .rodata	0000000b __fsym_list_event_name
00019284 g     O .rodata	00000005 http_png
0001902c g     O .rodata	00000005 http_200
000190a4 g     O .rodata	0000000a http_404_html
00013808 g     F .text	00000088 finsh_node_new_ptr
0001759c g     O .text	0000000c __fsym_list_event
0000bf98 g     F .text	00000070 uip_init
0001d95c g     O .bss	00000004 rt_object_trytake_hook
0000bdd8 g     F .text	00000010 uip_setipid
00012cd0 g     F .text	000000cc finsh_compiler_run
0000e4bc g     F .text	00000018 clock_time
00017a64 g     O .rodata	00000014 file_style_css
00017790 g     O .rodata	0000001e __fsym_list_mem_desc
00003444 g     F .text	000001d4 rt_sem_take
00013db4 g     F .text	0000002c OP_shr_byte
0000a94c g     F .text	0000022c deal
0000f72c g     F .text	000000d0 strspn
00004e74 g     F .text	00000090 rt_mq_detach
000037a8 g     F .text	00000068 rt_mutex_init
00002000 g       .text	00000000 _stext
0001928c g     O .rodata	00000005 http_gif
0000935c g     F .text	00000038 strlen
000192c4 g     O .rodata	00000008 __fsym_version_name
00016fc8 g     F .text	00000144 finsh_push_history
00019408 g     O .rodata	00000015 __fsym_list_timer_desc
0001dc04 g     O .bss	00001e20 PktBuf
0000f4dc g     F .text	0000003c toupper
000248f0 g       .stack	00000000 _stack
00006134 g     F .text	00000064 _rt_errno
0000bf80 g     F .text	00000018 uip_udpchksum
0001fe88 g     O .bss	00000004 uip_netmask
0000687c g     F .text	00000074 rt_console_set_device
0000f998 g     F .text	00000068 strchr
00013f80 g     F .text	0000005c OP_ld_value_word
0001fe8c g     O .bss	00000004 uip_hostaddr
00002434 g     F .text	00000020 icache_status
000208e8 g     O .bss	00000004 finsh_sp
0000305c g     F .text	00000044 rt_device_write
000192f0 g     O .rodata	0000000c __fsym_list_thread_name
000033b4 g     F .text	00000090 rt_sem_delete
00017560 g       .text	00000000 __fsymtab_start
00013f60 g     F .text	00000020 OP_ld_value_byte_stack
000077a0 g     F .text	000000cc rt_mp_free
00013a58 g     F .text	00000034 OP_mod_word
0000677c g     F .text	0000008c rt_strdup
0000a328 g     F .text	00000290 ethoc_rx
000177b0 g     O .rodata	00000100 rt_lowest_bitmap
00016780 g     F .text	00000080 finsh_syscall_append
000206a4 g     O .bss	000000c0 global_variable
00019238 g     O .rodata	0000002b http_content_type_binary
00006bb0 g     F .text	00000010 rt_malloc_sethook
00007e14 g     F .text	00000190 rt_schedule
000078e8 g     F .text	000000a4 rt_object_init
0000335c g     F .text	00000058 rt_sem_create
00019274 g     O .rodata	00000005 http_htm
00002654 g     F .text	00000030 dcache_disable
00009564 g     F .text	00000058 TimerInit
00008c5c g     F .text	00000120 rt_timer_start
00013cd0 g     F .text	00000020 OP_bw_byte
0000629c g     F .text	00000110 rt_memcpy
0001fe90 g     O .bss	00000642 uip_buf
0001b7e0 g     O .bss	00000004 global_syscall_list
00012dd8 g     F .text	0000002c finsh_error_string
00012d9c g     F .text	00000018 finsh_error_init
0001760c g       .text	00000000 _endtext
0001336c g     F .text	0000002c finsh_flush
0000dab8 g     F .text	0000005c uip_send
00012dc8 g     F .text	00000010 finsh_errno
00009300 g     F .text	00000028 rt_hw_context_switch
000204d2 g     O .bss	00000002 uip_slen
000072b0 g     F .text	00000010 rt_mp_free_sethook
000179ec g     O .rodata	00000014 file_processes_shtml
00013320 g     F .text	0000003c finsh_init
00019420 g     O .rodata	0000000c __fsym_list_device_name
000193b0 g     O .rodata	0000001d __fsym_list_msgqueue_desc
00019314 g     O .rodata	00000019 __fsym_list_sem_desc



Disassembly of section .vectors:

00000000 <.vectors>:
	...
     100:	18 60 00 00 	l.movhi r3,0x0
     104:	a8 63 96 60 	l.ori r3,r3,0x9660
     108:	44 00 18 00 	l.jr r3
     10c:	15 00 00 00 	l.nop 0x0
	...
     500:	9c 21 ff 00 	l.addi r1,r1,0xffffff00
     504:	d4 01 18 0c 	l.sw 0xc(r1),r3
     508:	18 60 00 00 	l.movhi r3,0x0
     50c:	a8 63 9a 18 	l.ori r3,r3,0x9a18
     510:	44 00 18 00 	l.jr r3
     514:	15 00 00 00 	l.nop 0x0
	...
     600:	9c 21 ff 00 	l.addi r1,r1,0xffffff00
     604:	d4 01 18 0c 	l.sw 0xc(r1),r3
     608:	18 60 00 00 	l.movhi r3,0x0
     60c:	a8 63 98 1c 	l.ori r3,r3,0x981c
     610:	44 00 18 00 	l.jr r3
     614:	15 00 00 00 	l.nop 0x0
	...
     800:	9c 21 ff 00 	l.addi r1,r1,0xffffff00
     804:	d4 01 18 0c 	l.sw 0xc(r1),r3
     808:	18 60 00 00 	l.movhi r3,0x0
     80c:	a8 63 9c 20 	l.ori r3,r3,0x9c20
     810:	44 00 18 00 	l.jr r3
     814:	15 00 00 00 	l.nop 0x0
	...
     c00:	9c 21 ff 00 	l.addi r1,r1,0xffffff00
     c04:	d4 01 18 0c 	l.sw 0xc(r1),r3
     c08:	18 60 00 00 	l.movhi r3,0x0
     c0c:	a8 63 98 48 	l.ori r3,r3,0x9848
     c10:	44 00 18 00 	l.jr r3
     c14:	15 00 00 00 	l.nop 0x0
	...

Disassembly of section .text:

00002000 <thread2_entry>:
    2000:	18 60 00 01 	l.movhi r3,0x1
    2004:	d7 e1 4f fc 	l.sw 0xfffffffc(r1),r9
    2008:	d7 e1 17 f8 	l.sw 0xfffffff8(r1),r2
    200c:	a8 63 9a 2c 	l.ori r3,r3,0x9a2c
    2010:	04 00 12 3a 	l.jal 68f8 <rt_kprintf>
    2014:	9c 21 ff f4 	l.addi r1,r1,0xfffffff4
    2018:	9c 80 00 00 	l.addi r4,r0,0x0
    201c:	18 60 00 01 	l.movhi r3,0x1
    2020:	9c 44 00 01 	l.addi r2,r4,0x1
    2024:	a8 63 9a 4a 	l.ori r3,r3,0x9a4a
    2028:	04 00 12 34 	l.jal 68f8 <rt_kprintf>
    202c:	d4 01 20 00 	l.sw 0x0(r1),r4
    2030:	04 00 19 c9 	l.jal 8754 <rt_thread_delay>
    2034:	9c 60 01 f4 	l.addi r3,r0,0x1f4
    2038:	03 ff ff f9 	l.j 201c <_stack+0xfffdd72c>
    203c:	a8 82 00 00 	l.ori r4,r2,0x0

00002040 <thread1_entry>:
    2040:	18 60 00 01 	l.movhi r3,0x1
    2044:	d7 e1 4f fc 	l.sw 0xfffffffc(r1),r9
    2048:	d7 e1 17 f8 	l.sw 0xfffffff8(r1),r2
    204c:	a8 63 9a 5d 	l.ori r3,r3,0x9a5d
    2050:	04 00 12 2a 	l.jal 68f8 <rt_kprintf>
    2054:	9c 21 ff f4 	l.addi r1,r1,0xfffffff4
    2058:	9c 80 00 00 	l.addi r4,r0,0x0
    205c:	18 60 00 01 	l.movhi r3,0x1
    2060:	9c 44 00 01 	l.addi r2,r4,0x1
    2064:	a8 63 9a 7b 	l.ori r3,r3,0x9a7b
    2068:	04 00 12 24 	l.jal 68f8 <rt_kprintf>
    206c:	d4 01 20 00 	l.sw 0x0(r1),r4
    2070:	04 00 19 b9 	l.jal 8754 <rt_thread_delay>
    2074:	9c 60 00 64 	l.addi r3,r0,0x64
    2078:	03 ff ff f9 	l.j 205c <_stack+0xfffdd76c>
    207c:	a8 82 00 00 	l.ori r4,r2,0x0

00002080 <rt_application_init>:
    2080:	18 60 00 01 	l.movhi r3,0x1
    2084:	18 80 00 00 	l.movhi r4,0x0
    2088:	d7 e1 4f fc 	l.sw 0xfffffffc(r1),r9
    208c:	a8 63 9a 8e 	l.ori r3,r3,0x9a8e
    2090:	9c 21 ff fc 	l.addi r1,r1,0xfffffffc
    2094:	a8 84 20 40 	l.ori r4,r4,0x2040
    2098:	9c a0 00 00 	l.addi r5,r0,0x0
    209c:	9c c0 02 00 	l.addi r6,r0,0x200
    20a0:	9c e0 00 05 	l.addi r7,r0,0x5
    20a4:	04 00 18 d6 	l.jal 83fc <rt_thread_create>
    20a8:	9d 00 00 0a 	l.addi r8,r0,0xa
    20ac:	18 60 00 01 	l.movhi r3,0x1
    20b0:	bc 0b 00 00 	l.sfeqi r11,0x0
    20b4:	a8 63 d8 a4 	l.ori r3,r3,0xd8a4
    20b8:	10 00 00 04 	l.bf 20c8 <rt_application_init+0x48>
    20bc:	d4 03 58 00 	l.sw 0x0(r3),r11
    20c0:	04 00 19 d6 	l.jal 8818 <rt_thread_startup>
    20c4:	a8 6b 00 00 	l.ori r3,r11,0x0
    20c8:	18 60 00 01 	l.movhi r3,0x1
    20cc:	18 80 00 00 	l.movhi r4,0x0
    20d0:	a8 63 9a 96 	l.ori r3,r3,0x9a96
    20d4:	a8 84 20 00 	l.ori r4,r4,0x2000
    20d8:	9c a0 00 00 	l.addi r5,r0,0x0
    20dc:	9c c0 02 00 	l.addi r6,r0,0x200
    20e0:	9c e0 00 06 	l.addi r7,r0,0x6
    20e4:	04 00 18 c6 	l.jal 83fc <rt_thread_create>
    20e8:	9d 00 00 0a 	l.addi r8,r0,0xa
    20ec:	18 60 00 01 	l.movhi r3,0x1
    20f0:	bc 0b 00 00 	l.sfeqi r11,0x0
    20f4:	a8 63 d8 a8 	l.ori r3,r3,0xd8a8
    20f8:	10 00 00 04 	l.bf 2108 <rt_application_init+0x88>
    20fc:	d4 03 58 00 	l.sw 0x0(r3),r11
    2100:	04 00 19 c6 	l.jal 8818 <rt_thread_startup>
    2104:	a8 6b 00 00 	l.ori r3,r11,0x0
    2108:	9c 21 00 04 	l.addi r1,r1,0x4
    210c:	85 21 ff fc 	l.lwz r9,0xfffffffc(r1)
    2110:	44 00 48 00 	l.jr r9
    2114:	9d 60 00 00 	l.addi r11,r0,0x0

00002118 <rtthread_startup>:
    2118:	d7 e1 4f fc 	l.sw 0xfffffffc(r1),r9
    211c:	04 00 1b c5 	l.jal 9030 <rt_hw_interrupt_init>
    2120:	9c 21 ff fc 	l.addi r1,r1,0xfffffffc
    2124:	04 00 00 53 	l.jal 2270 <rt_hw_board_init>
    2128:	15 00 00 00 	l.nop 0x0
    212c:	04 00 12 14 	l.jal 697c <rt_show_version>
    2130:	15 00 00 00 	l.nop 0x0
    2134:	04 00 02 69 	l.jal 2ad8 <rt_system_tick_init>
    2138:	15 00 00 00 	l.nop 0x0
    213c:	04 00 15 e0 	l.jal 78bc <rt_system_object_init>
    2140:	15 00 00 00 	l.nop 0x0
    2144:	04 00 1b b7 	l.jal 9020 <rt_system_timer_init>
    2148:	15 00 00 00 	l.nop 0x0
    214c:	18 60 00 02 	l.movhi r3,0x2
    2150:	18 80 00 10 	l.movhi r4,0x10
    2154:	04 00 12 9f 	l.jal 6bd0 <rt_system_heap_init>
    2158:	a8 63 08 f0 	l.ori r3,r3,0x8f0
    215c:	04 00 16 cf 	l.jal 7c98 <rt_system_scheduler_init>
    2160:	15 00 00 00 	l.nop 0x0
    2164:	04 00 02 37 	l.jal 2a40 <rt_hw_serial_init>
    2168:	15 00 00 00 	l.nop 0x0
    216c:	04 00 02 92 	l.jal 2bb4 <rt_device_init_all>
    2170:	15 00 00 00 	l.nop 0x0
    2174:	04 00 1c fc 	l.jal 9564 <TimerInit>
    2178:	15 00 00 00 	l.nop 0x0
    217c:	04 00 54 ac 	l.jal 1742c <finsh_system_init>
    2180:	15 00 00 00 	l.nop 0x0
    2184:	18 60 00 01 	l.movhi r3,0x1
    2188:	04 00 52 6b 	l.jal 16b34 <finsh_set_device>
    218c:	a8 63 9a 9e 	l.ori r3,r3,0x9a9e
    2190:	04 00 21 cf 	l.jal a8cc <eth_system_device_init>
    2194:	15 00 00 00 	l.nop 0x0
    2198:	9c 60 00 00 	l.addi r3,r0,0x0
    219c:	04 00 21 2a 	l.jal a644 <ethoc_initialize>
    21a0:	18 80 92 00 	l.movhi r4,0x9200
    21a4:	04 00 21 e0 	l.jal a924 <uip_sys_init>
    21a8:	15 00 00 00 	l.nop 0x0
    21ac:	04 00 02 82 	l.jal 2bb4 <rt_device_init_all>
    21b0:	15 00 00 00 	l.nop 0x0
    21b4:	04 00 04 18 	l.jal 3214 <rt_thread_idle_init>
    21b8:	15 00 00 00 	l.nop 0x0
    21bc:	9c 21 00 04 	l.addi r1,r1,0x4
    21c0:	85 21 ff fc 	l.lwz r9,0xfffffffc(r1)
    21c4:	00 00 16 da 	l.j 7d2c <rt_system_scheduler_start>
    21c8:	15 00 00 00 	l.nop 0x0

000021cc <rt_hw_timer_handler>:
    21cc:	d7 e1 4f fc 	l.sw 0xfffffffc(r1),r9
    21d0:	04 00 1d 17 	l.jal 962c <TimerClearInterrupt>
    21d4:	9c 21 ff fc 	l.addi r1,r1,0xfffffffc
    21d8:	9c 21 00 04 	l.addi r1,r1,0x4
    21dc:	85 21 ff fc 	l.lwz r9,0xfffffffc(r1)
    21e0:	00 00 02 51 	l.j 2b24 <rt_tick_increase>
    21e4:	15 00 00 00 	l.nop 0x0

000021e8 <rt_hw_console_output>:
    21e8:	90 83 00 00 	l.lbs r4,0x0(r3)
    21ec:	d7 e1 17 fc 	l.sw 0xfffffffc(r1),r2
    21f0:	bc 04 00 00 	l.sfeqi r4,0x0
    21f4:	10 00 00 13 	l.bf 2240 <rt_hw_console_output+0x58>
    21f8:	9c 21 ff fc 	l.addi r1,r1,0xfffffffc
    21fc:	18 a0 90 00 	l.movhi r5,0x9000
    2200:	a8 a5 00 05 	l.ori r5,r5,0x5
    2204:	bc 24 00 0a 	l.sfnei r4,0xa
    2208:	0c 00 00 11 	l.bnf 224c <rt_hw_console_output+0x64>
    220c:	15 00 00 00 	l.nop 0x0
    2210:	8c 85 00 00 	l.lbz r4,0x0(r5)
    2214:	a4 84 00 20 	l.andi r4,r4,0x20
    2218:	bc 04 00 00 	l.sfeqi r4,0x0
    221c:	13 ff ff fd 	l.bf 2210 <_stack+0xfffdd920>
    2220:	18 80 90 00 	l.movhi r4,0x9000
    2224:	8c c3 00 00 	l.lbz r6,0x0(r3)
    2228:	9c 63 00 01 	l.addi r3,r3,0x1
    222c:	d8 04 30 00 	l.sb 0x0(r4),r6
    2230:	90 83 00 00 	l.lbs r4,0x0(r3)
    2234:	bc 24 00 00 	l.sfnei r4,0x0
    2238:	13 ff ff f4 	l.bf 2208 <_stack+0xfffdd918>
    223c:	bc 24 00 0a 	l.sfnei r4,0xa
    2240:	9c 21 00 04 	l.addi r1,r1,0x4
    2244:	44 00 48 00 	l.jr r9
    2248:	84 41 ff fc 	l.lwz r2,0xfffffffc(r1)
    224c:	8c 85 00 00 	l.lbz r4,0x0(r5)
    2250:	a4 84 00 20 	l.andi r4,r4,0x20
    2254:	bc 04 00 00 	l.sfeqi r4,0x0
    2258:	13 ff ff fd 	l.bf 224c <_stack+0xfffdd95c>
    225c:	18 80 90 00 	l.movhi r4,0x9000
    2260:	9c 40 00 0d 	l.addi r2,r0,0xd
    2264:	d8 04 10 00 	l.sb 0x0(r4),r2
    2268:	03 ff ff ea 	l.j 2210 <_stack+0xfffdd920>
    226c:	15 00 00 00 	l.nop 0x0

00002270 <rt_hw_board_init>:
    2270:	18 80 90 00 	l.movhi r4,0x9000
    2274:	d7 e1 17 fc 	l.sw 0xfffffffc(r1),r2
    2278:	a8 64 00 02 	l.ori r3,r4,0x2
    227c:	9c 40 00 47 	l.addi r2,r0,0x47
    2280:	a8 a4 00 01 	l.ori r5,r4,0x1
    2284:	9c c0 00 00 	l.addi r6,r0,0x0
    2288:	d8 03 10 00 	l.sb 0x0(r3),r2
    228c:	a8 64 00 03 	l.ori r3,r4,0x3
    2290:	9c 40 00 03 	l.addi r2,r0,0x3
    2294:	d8 05 30 00 	l.sb 0x0(r5),r6
    2298:	d8 03 10 00 	l.sb 0x0(r3),r2
    229c:	9c 40 00 41 	l.addi r2,r0,0x41
    22a0:	8c e3 00 00 	l.lbz r7,0x0(r3)
    22a4:	a8 e7 00 80 	l.ori r7,r7,0x80
    22a8:	9c 21 ff fc 	l.addi r1,r1,0xfffffffc
    22ac:	d8 03 38 00 	l.sb 0x0(r3),r7
    22b0:	d8 05 30 00 	l.sb 0x0(r5),r6
    22b4:	d8 04 10 00 	l.sb 0x0(r4),r2
    22b8:	8c 83 00 00 	l.lbz r4,0x0(r3)
    22bc:	a4 84 00 7f 	l.andi r4,r4,0x7f
    22c0:	d8 03 20 00 	l.sb 0x0(r3),r4
    22c4:	9c 21 00 04 	l.addi r1,r1,0x4
    22c8:	44 00 48 00 	l.jr r9
    22cc:	84 41 ff fc 	l.lwz r2,0xfffffffc(r1)

000022d0 <icache_disable>:
    22d0:	d7 e1 4f fc 	l.sw 0xfffffffc(r1),r9
    22d4:	d7 e1 17 f8 	l.sw 0xfffffff8(r1),r2
    22d8:	9c 60 00 11 	l.addi r3,r0,0x11
    22dc:	9c 21 ff f8 	l.addi r1,r1,0xfffffff8
    22e0:	04 00 1c 9e 	l.jal 9558 <mfspr>
    22e4:	9c 40 ff ef 	l.addi r2,r0,0xffffffef
    22e8:	9c 21 00 08 	l.addi r1,r1,0x8
    22ec:	e0 8b 10 03 	l.and r4,r11,r2
    22f0:	9c 60 00 11 	l.addi r3,r0,0x11
    22f4:	85 21 ff fc 	l.lwz r9,0xfffffffc(r1)
    22f8:	00 00 1c 95 	l.j 954c <mtspr>
    22fc:	84 41 ff f8 	l.lwz r2,0xfffffff8(r1)

00002300 <icache_enable>:
    2300:	d7 e1 4f fc 	l.sw 0xfffffffc(r1),r9
    2304:	9c 60 00 11 	l.addi r3,r0,0x11
    2308:	04 00 1c 94 	l.jal 9558 <mfspr>
    230c:	9c 21 ff fc 	l.addi r1,r1,0xfffffffc
    2310:	9c 60 00 11 	l.addi r3,r0,0x11
    2314:	04 00 1c 8e 	l.jal 954c <mtspr>
    2318:	a8 8b 00 10 	l.ori r4,r11,0x10
    231c:	15 00 00 00 	l.nop 0x0
    2320:	15 00 00 00 	l.nop 0x0
    2324:	15 00 00 00 	l.nop 0x0
    2328:	15 00 00 00 	l.nop 0x0
    232c:	15 00 00 00 	l.nop 0x0
    2330:	15 00 00 00 	l.nop 0x0
    2334:	15 00 00 00 	l.nop 0x0
    2338:	15 00 00 00 	l.nop 0x0
    233c:	9c 21 00 04 	l.addi r1,r1,0x4
    2340:	85 21 ff fc 	l.lwz r9,0xfffffffc(r1)
    2344:	44 00 48 00 	l.jr r9
    2348:	15 00 00 00 	l.nop 0x0

0000234c <flush_dcache_range>:
    234c:	d7 e1 17 f0 	l.sw 0xfffffff0(r1),r2
    2350:	d7 e1 77 f4 	l.sw 0xfffffff4(r1),r14
    2354:	d7 e1 87 f8 	l.sw 0xfffffff8(r1),r16
    2358:	d7 e1 4f fc 	l.sw 0xfffffffc(r1),r9
    235c:	a8 43 00 00 	l.ori r2,r3,0x0
    2360:	9c 21 ff f0 	l.addi r1,r1,0xfffffff0
    2364:	9c 60 00 05 	l.addi r3,r0,0x5
    2368:	04 00 1c 7c 	l.jal 9558 <mfspr>
    236c:	a9 c4 00 00 	l.ori r14,r4,0x0
    2370:	a5 6b 00 80 	l.andi r11,r11,0x80
    2374:	bc 0b 00 00 	l.sfeqi r11,0x0
    2378:	10 00 00 03 	l.bf 2384 <flush_dcache_range+0x38>
    237c:	9e 00 00 10 	l.addi r16,r0,0x10
    2380:	9e 00 00 20 	l.addi r16,r0,0x20
    2384:	e4 62 70 00 	l.sfgeu r2,r14
    2388:	10 00 00 08 	l.bf 23a8 <flush_dcache_range+0x5c>
    238c:	a8 82 00 00 	l.ori r4,r2,0x0
    2390:	9c 60 18 02 	l.addi r3,r0,0x1802
    2394:	04 00 1c 6e 	l.jal 954c <mtspr>
    2398:	e0 42 80 00 	l.add r2,r2,r16
    239c:	e4 4e 10 00 	l.sfgtu r14,r2
    23a0:	13 ff ff fc 	l.bf 2390 <_stack+0xfffddaa0>
    23a4:	a8 82 00 00 	l.ori r4,r2,0x0
    23a8:	9c 21 00 10 	l.addi r1,r1,0x10
    23ac:	85 21 ff fc 	l.lwz r9,0xfffffffc(r1)
    23b0:	84 41 ff f0 	l.lwz r2,0xfffffff0(r1)
    23b4:	85 c1 ff f4 	l.lwz r14,0xfffffff4(r1)
    23b8:	44 00 48 00 	l.jr r9
    23bc:	86 01 ff f8 	l.lwz r16,0xfffffff8(r1)

000023c0 <invalidate_dcache_range>:
    23c0:	d7 e1 17 f0 	l.sw 0xfffffff0(r1),r2
    23c4:	d7 e1 77 f4 	l.sw 0xfffffff4(r1),r14
    23c8:	d7 e1 87 f8 	l.sw 0xfffffff8(r1),r16
    23cc:	d7 e1 4f fc 	l.sw 0xfffffffc(r1),r9
    23d0:	a8 43 00 00 	l.ori r2,r3,0x0
    23d4:	9c 21 ff f0 	l.addi r1,r1,0xfffffff0
    23d8:	9c 60 00 05 	l.addi r3,r0,0x5
    23dc:	04 00 1c 5f 	l.jal 9558 <mfspr>
    23e0:	a9 c4 00 00 	l.ori r14,r4,0x0
    23e4:	a5 6b 00 80 	l.andi r11,r11,0x80
    23e8:	bc 0b 00 00 	l.sfeqi r11,0x0
    23ec:	10 00 00 03 	l.bf 23f8 <invalidate_dcache_range+0x38>
    23f0:	9e 00 00 10 	l.addi r16,r0,0x10
    23f4:	9e 00 00 20 	l.addi r16,r0,0x20
    23f8:	e4 62 70 00 	l.sfgeu r2,r14
    23fc:	10 00 00 08 	l.bf 241c <invalidate_dcache_range+0x5c>
    2400:	a8 82 00 00 	l.ori r4,r2,0x0
    2404:	9c 60 18 03 	l.addi r3,r0,0x1803
    2408:	04 00 1c 51 	l.jal 954c <mtspr>
    240c:	e0 42 80 00 	l.add r2,r2,r16
    2410:	e4 4e 10 00 	l.sfgtu r14,r2
    2414:	13 ff ff fc 	l.bf 2404 <_stack+0xfffddb14>
    2418:	a8 82 00 00 	l.ori r4,r2,0x0
    241c:	9c 21 00 10 	l.addi r1,r1,0x10
    2420:	85 21 ff fc 	l.lwz r9,0xfffffffc(r1)
    2424:	84 41 ff f0 	l.lwz r2,0xfffffff0(r1)
    2428:	85 c1 ff f4 	l.lwz r14,0xfffffff4(r1)
    242c:	44 00 48 00 	l.jr r9
    2430:	86 01 ff f8 	l.lwz r16,0xfffffff8(r1)

00002434 <icache_status>:
    2434:	d7 e1 4f fc 	l.sw 0xfffffffc(r1),r9
    2438:	9c 60 00 11 	l.addi r3,r0,0x11
    243c:	04 00 1c 47 	l.jal 9558 <mfspr>
    2440:	9c 21 ff fc 	l.addi r1,r1,0xfffffffc
    2444:	9c 21 00 04 	l.addi r1,r1,0x4
    2448:	85 21 ff fc 	l.lwz r9,0xfffffffc(r1)
    244c:	44 00 48 00 	l.jr r9
    2450:	a5 6b 00 10 	l.andi r11,r11,0x10

00002454 <invalidate_icache_range>:
    2454:	d7 e1 17 ec 	l.sw 0xffffffec(r1),r2
    2458:	d7 e1 77 f0 	l.sw 0xfffffff0(r1),r14
    245c:	d7 e1 87 f4 	l.sw 0xfffffff4(r1),r16
    2460:	d7 e1 4f fc 	l.sw 0xfffffffc(r1),r9
    2464:	d7 e1 97 f8 	l.sw 0xfffffff8(r1),r18
    2468:	a8 43 00 00 	l.ori r2,r3,0x0
    246c:	9c 21 ff ec 	l.addi r1,r1,0xffffffec
    2470:	9c 60 00 06 	l.addi r3,r0,0x6
    2474:	04 00 1c 39 	l.jal 9558 <mfspr>
    2478:	a9 c4 00 00 	l.ori r14,r4,0x0
    247c:	a5 6b 00 80 	l.andi r11,r11,0x80
    2480:	bc 0b 00 00 	l.sfeqi r11,0x0
    2484:	10 00 00 03 	l.bf 2490 <invalidate_icache_range+0x3c>
    2488:	9e 00 00 10 	l.addi r16,r0,0x10
    248c:	9e 00 00 20 	l.addi r16,r0,0x20
    2490:	07 ff ff e9 	l.jal 2434 <_stack+0xfffddb44>
    2494:	15 00 00 00 	l.nop 0x0
    2498:	07 ff ff 8e 	l.jal 22d0 <_stack+0xfffdd9e0>
    249c:	aa 4b 00 00 	l.ori r18,r11,0x0
    24a0:	e4 62 70 00 	l.sfgeu r2,r14
    24a4:	10 00 00 0a 	l.bf 24cc <invalidate_icache_range+0x78>
    24a8:	bc 12 00 00 	l.sfeqi r18,0x0
    24ac:	a8 82 00 00 	l.ori r4,r2,0x0
    24b0:	9c 60 20 02 	l.addi r3,r0,0x2002
    24b4:	04 00 1c 26 	l.jal 954c <mtspr>
    24b8:	e0 42 80 00 	l.add r2,r2,r16
    24bc:	e4 4e 10 00 	l.sfgtu r14,r2
    24c0:	13 ff ff fc 	l.bf 24b0 <_stack+0xfffddbc0>
    24c4:	a8 82 00 00 	l.ori r4,r2,0x0
    24c8:	bc 12 00 00 	l.sfeqi r18,0x0
    24cc:	0c 00 00 09 	l.bnf 24f0 <invalidate_icache_range+0x9c>
    24d0:	15 00 00 00 	l.nop 0x0
    24d4:	9c 21 00 14 	l.addi r1,r1,0x14
    24d8:	85 21 ff fc 	l.lwz r9,0xfffffffc(r1)
    24dc:	84 41 ff ec 	l.lwz r2,0xffffffec(r1)
    24e0:	85 c1 ff f0 	l.lwz r14,0xfffffff0(r1)
    24e4:	86 01 ff f4 	l.lwz r16,0xfffffff4(r1)
    24e8:	44 00 48 00 	l.jr r9
    24ec:	86 41 ff f8 	l.lwz r18,0xfffffff8(r1)
    24f0:	9c 21 00 14 	l.addi r1,r1,0x14
    24f4:	85 21 ff fc 	l.lwz r9,0xfffffffc(r1)
    24f8:	84 41 ff ec 	l.lwz r2,0xffffffec(r1)
    24fc:	85 c1 ff f0 	l.lwz r14,0xfffffff0(r1)
    2500:	86 01 ff f4 	l.lwz r16,0xfffffff4(r1)
    2504:	03 ff ff 7f 	l.j 2300 <_stack+0xfffdda10>
    2508:	86 41 ff f8 	l.lwz r18,0xfffffff8(r1)

0000250c <flush_cache>:
    250c:	d7 e1 17 f4 	l.sw 0xfffffff4(r1),r2
    2510:	e0 44 18 00 	l.add r2,r4,r3
    2514:	d7 e1 4f fc 	l.sw 0xfffffffc(r1),r9
    2518:	d7 e1 77 f8 	l.sw 0xfffffff8(r1),r14
    251c:	a8 82 00 00 	l.ori r4,r2,0x0
    2520:	9c 21 ff f4 	l.addi r1,r1,0xfffffff4
    2524:	07 ff ff 8a 	l.jal 234c <_stack+0xfffdda5c>
    2528:	a9 c3 00 00 	l.ori r14,r3,0x0
    252c:	9c 21 00 0c 	l.addi r1,r1,0xc
    2530:	a8 6e 00 00 	l.ori r3,r14,0x0
    2534:	a8 82 00 00 	l.ori r4,r2,0x0
    2538:	85 21 ff fc 	l.lwz r9,0xfffffffc(r1)
    253c:	84 41 ff f4 	l.lwz r2,0xfffffff4(r1)
    2540:	03 ff ff c5 	l.j 2454 <_stack+0xfffddb64>
    2544:	85 c1 ff f8 	l.lwz r14,0xfffffff8(r1)

00002548 <checkicache>:
    2548:	d7 e1 4f fc 	l.sw 0xfffffffc(r1),r9
    254c:	9c 60 00 06 	l.addi r3,r0,0x6
    2550:	04 00 1c 02 	l.jal 9558 <mfspr>
    2554:	9c 21 ff fc 	l.addi r1,r1,0xfffffffc
    2558:	a4 8b 00 78 	l.andi r4,r11,0x78
    255c:	9c 60 00 01 	l.addi r3,r0,0x1
    2560:	b8 84 00 43 	l.srli r4,r4,0x3
    2564:	a4 ab 00 07 	l.andi r5,r11,0x7
    2568:	a5 6b 00 80 	l.andi r11,r11,0x80
    256c:	e0 a3 28 08 	l.sll r5,r3,r5
    2570:	bc 0b 00 00 	l.sfeqi r11,0x0
    2574:	e0 63 20 08 	l.sll r3,r3,r4
    2578:	10 00 00 03 	l.bf 2584 <checkicache+0x3c>
    257c:	9c 80 00 10 	l.addi r4,r0,0x10
    2580:	9c 80 00 20 	l.addi r4,r0,0x20
    2584:	e1 63 2b 06 	l.mul r11,r3,r5
    2588:	9c 21 00 04 	l.addi r1,r1,0x4
    258c:	85 21 ff fc 	l.lwz r9,0xfffffffc(r1)
    2590:	44 00 48 00 	l.jr r9
    2594:	e1 6b 23 06 	l.mul r11,r11,r4

00002598 <dcache_status>:
    2598:	d7 e1 4f fc 	l.sw 0xfffffffc(r1),r9
    259c:	9c 60 00 11 	l.addi r3,r0,0x11
    25a0:	04 00 1b ee 	l.jal 9558 <mfspr>
    25a4:	9c 21 ff fc 	l.addi r1,r1,0xfffffffc
    25a8:	9c 21 00 04 	l.addi r1,r1,0x4
    25ac:	85 21 ff fc 	l.lwz r9,0xfffffffc(r1)
    25b0:	44 00 48 00 	l.jr r9
    25b4:	a5 6b 00 08 	l.andi r11,r11,0x8

000025b8 <checkdcache>:
    25b8:	d7 e1 4f fc 	l.sw 0xfffffffc(r1),r9
    25bc:	9c 60 00 05 	l.addi r3,r0,0x5
    25c0:	04 00 1b e6 	l.jal 9558 <mfspr>
    25c4:	9c 21 ff fc 	l.addi r1,r1,0xfffffffc
    25c8:	a4 8b 00 78 	l.andi r4,r11,0x78
    25cc:	9c 60 00 01 	l.addi r3,r0,0x1
    25d0:	b8 84 00 43 	l.srli r4,r4,0x3
    25d4:	a4 ab 00 07 	l.andi r5,r11,0x7
    25d8:	a5 6b 00 80 	l.andi r11,r11,0x80
    25dc:	e0 a3 28 08 	l.sll r5,r3,r5
    25e0:	bc 0b 00 00 	l.sfeqi r11,0x0
    25e4:	e0 63 20 08 	l.sll r3,r3,r4
    25e8:	10 00 00 03 	l.bf 25f4 <checkdcache+0x3c>
    25ec:	9c 80 00 10 	l.addi r4,r0,0x10
    25f0:	9c 80 00 20 	l.addi r4,r0,0x20
    25f4:	e1 63 2b 06 	l.mul r11,r3,r5
    25f8:	9c 21 00 04 	l.addi r1,r1,0x4
    25fc:	85 21 ff fc 	l.lwz r9,0xfffffffc(r1)
    2600:	44 00 48 00 	l.jr r9
    2604:	e1 6b 23 06 	l.mul r11,r11,r4

00002608 <dcache_enable>:
    2608:	d7 e1 4f fc 	l.sw 0xfffffffc(r1),r9
    260c:	9c 60 00 11 	l.addi r3,r0,0x11
    2610:	04 00 1b d2 	l.jal 9558 <mfspr>
    2614:	9c 21 ff fc 	l.addi r1,r1,0xfffffffc
    2618:	9c 60 00 11 	l.addi r3,r0,0x11
    261c:	04 00 1b cc 	l.jal 954c <mtspr>
    2620:	a8 8b 00 08 	l.ori r4,r11,0x8
    2624:	15 00 00 00 	l.nop 0x0
    2628:	15 00 00 00 	l.nop 0x0
    262c:	15 00 00 00 	l.nop 0x0
    2630:	15 00 00 00 	l.nop 0x0
    2634:	15 00 00 00 	l.nop 0x0
    2638:	15 00 00 00 	l.nop 0x0
    263c:	15 00 00 00 	l.nop 0x0
    2640:	15 00 00 00 	l.nop 0x0
    2644:	9c 21 00 04 	l.addi r1,r1,0x4
    2648:	85 21 ff fc 	l.lwz r9,0xfffffffc(r1)
    264c:	44 00 48 00 	l.jr r9
    2650:	15 00 00 00 	l.nop 0x0

00002654 <dcache_disable>:
    2654:	d7 e1 4f fc 	l.sw 0xfffffffc(r1),r9
    2658:	d7 e1 17 f8 	l.sw 0xfffffff8(r1),r2
    265c:	9c 60 00 11 	l.addi r3,r0,0x11
    2660:	9c 21 ff f8 	l.addi r1,r1,0xfffffff8
    2664:	04 00 1b bd 	l.jal 9558 <mfspr>
    2668:	9c 40 ff f7 	l.addi r2,r0,0xfffffff7
    266c:	9c 21 00 08 	l.addi r1,r1,0x8
    2670:	e0 8b 10 03 	l.and r4,r11,r2
    2674:	9c 60 00 11 	l.addi r3,r0,0x11
    2678:	85 21 ff fc 	l.lwz r9,0xfffffffc(r1)
    267c:	00 00 1b b4 	l.j 954c <mtspr>
    2680:	84 41 ff f8 	l.lwz r2,0xfffffff8(r1)

00002684 <cache_init>:
    2684:	d7 e1 4f fc 	l.sw 0xfffffffc(r1),r9
    2688:	9c 60 00 01 	l.addi r3,r0,0x1
    268c:	04 00 1b b3 	l.jal 9558 <mfspr>
    2690:	9c 21 ff fc 	l.addi r1,r1,0xfffffffc
    2694:	a5 6b 00 04 	l.andi r11,r11,0x4
    2698:	bc 0b 00 00 	l.sfeqi r11,0x0
    269c:	0c 00 00 15 	l.bnf 26f0 <cache_init+0x6c>
    26a0:	15 00 00 00 	l.nop 0x0
    26a4:	04 00 1b ad 	l.jal 9558 <mfspr>
    26a8:	9c 60 00 01 	l.addi r3,r0,0x1
    26ac:	a5 6b 00 02 	l.andi r11,r11,0x2
    26b0:	bc 0b 00 00 	l.sfeqi r11,0x0
    26b4:	10 00 00 0b 	l.bf 26e0 <cache_init+0x5c>
    26b8:	15 00 00 00 	l.nop 0x0
    26bc:	07 ff ff e6 	l.jal 2654 <_stack+0xfffddd64>
    26c0:	15 00 00 00 	l.nop 0x0
    26c4:	07 ff ff bd 	l.jal 25b8 <_stack+0xfffddcc8>
    26c8:	15 00 00 00 	l.nop 0x0
    26cc:	9c 60 00 00 	l.addi r3,r0,0x0
    26d0:	07 ff ff 3c 	l.jal 23c0 <_stack+0xfffddad0>
    26d4:	a8 8b 00 00 	l.ori r4,r11,0x0
    26d8:	07 ff ff cc 	l.jal 2608 <_stack+0xfffddd18>
    26dc:	15 00 00 00 	l.nop 0x0
    26e0:	9c 21 00 04 	l.addi r1,r1,0x4
    26e4:	85 21 ff fc 	l.lwz r9,0xfffffffc(r1)
    26e8:	44 00 48 00 	l.jr r9
    26ec:	9d 60 00 00 	l.addi r11,r0,0x0
    26f0:	07 ff fe f8 	l.jal 22d0 <_stack+0xfffdd9e0>
    26f4:	15 00 00 00 	l.nop 0x0
    26f8:	07 ff ff 94 	l.jal 2548 <_stack+0xfffddc58>
    26fc:	15 00 00 00 	l.nop 0x0
    2700:	9c 60 00 00 	l.addi r3,r0,0x0
    2704:	07 ff ff 54 	l.jal 2454 <_stack+0xfffddb64>
    2708:	a8 8b 00 00 	l.ori r4,r11,0x0
    270c:	07 ff fe fd 	l.jal 2300 <_stack+0xfffdda10>
    2710:	15 00 00 00 	l.nop 0x0
    2714:	03 ff ff e4 	l.j 26a4 <_stack+0xfffdddb4>
    2718:	15 00 00 00 	l.nop 0x0

0000271c <rt_uart_init>:
    271c:	44 00 48 00 	l.jr r9
    2720:	9d 60 00 00 	l.addi r11,r0,0x0

00002724 <rt_uart_write>:
    2724:	19 00 90 00 	l.movhi r8,0x9000
    2728:	d7 e1 17 fc 	l.sw 0xfffffffc(r1),r2
    272c:	94 83 00 30 	l.lhz r4,0x30(r3)
    2730:	a8 68 00 02 	l.ori r3,r8,0x2
    2734:	a4 84 00 40 	l.andi r4,r4,0x40
    2738:	8d 63 00 00 	l.lbz r11,0x0(r3)
    273c:	9c 21 ff fc 	l.addi r1,r1,0xfffffffc
    2740:	bc 24 00 00 	l.sfnei r4,0x0
    2744:	10 00 00 14 	l.bf 2794 <rt_uart_write+0x70>
    2748:	a8 65 00 00 	l.ori r3,r5,0x0
    274c:	bc 26 00 00 	l.sfnei r6,0x0
    2750:	0c 00 00 0d 	l.bnf 2784 <rt_uart_write+0x60>
    2754:	a5 6b 00 04 	l.andi r11,r11,0x4
    2758:	a8 85 00 00 	l.ori r4,r5,0x0
    275c:	a8 66 00 00 	l.ori r3,r6,0x0
    2760:	bc 0b 00 00 	l.sfeqi r11,0x0
    2764:	10 00 00 28 	l.bf 2804 <rt_uart_write+0xe0>
    2768:	9c 63 ff ff 	l.addi r3,r3,0xffffffff
    276c:	8c e4 00 00 	l.lbz r7,0x0(r4)
    2770:	d8 08 38 00 	l.sb 0x0(r8),r7
    2774:	bc 23 00 00 	l.sfnei r3,0x0
    2778:	13 ff ff fa 	l.bf 2760 <_stack+0xfffdde70>
    277c:	9c 84 00 01 	l.addi r4,r4,0x1
    2780:	e0 65 30 00 	l.add r3,r5,r6
    2784:	9c 21 00 04 	l.addi r1,r1,0x4
    2788:	e1 63 28 02 	l.sub r11,r3,r5
    278c:	44 00 48 00 	l.jr r9
    2790:	84 41 ff fc 	l.lwz r2,0xfffffffc(r1)
    2794:	bc 06 00 00 	l.sfeqi r6,0x0
    2798:	13 ff ff fb 	l.bf 2784 <_stack+0xfffdde94>
    279c:	a5 6b 00 04 	l.andi r11,r11,0x4
    27a0:	a8 65 00 00 	l.ori r3,r5,0x0
    27a4:	00 00 00 0a 	l.j 27cc <rt_uart_write+0xa8>
    27a8:	a8 e6 00 00 	l.ori r7,r6,0x0
    27ac:	bc 0b 00 00 	l.sfeqi r11,0x0
    27b0:	10 00 00 11 	l.bf 27f4 <rt_uart_write+0xd0>
    27b4:	a4 84 00 ff 	l.andi r4,r4,0xff
    27b8:	9c 63 00 01 	l.addi r3,r3,0x1
    27bc:	d8 08 20 00 	l.sb 0x0(r8),r4
    27c0:	bc 27 00 00 	l.sfnei r7,0x0
    27c4:	0f ff ff ef 	l.bnf 2780 <_stack+0xfffdde90>
    27c8:	15 00 00 00 	l.nop 0x0
    27cc:	90 83 00 00 	l.lbs r4,0x0(r3)
    27d0:	bc 24 00 0a 	l.sfnei r4,0xa
    27d4:	13 ff ff f6 	l.bf 27ac <_stack+0xfffddebc>
    27d8:	9c e7 ff ff 	l.addi r7,r7,0xffffffff
    27dc:	bc 0b 00 00 	l.sfeqi r11,0x0
    27e0:	10 00 00 07 	l.bf 27fc <rt_uart_write+0xd8>
    27e4:	9c 40 00 0d 	l.addi r2,r0,0xd
    27e8:	d8 08 10 00 	l.sb 0x0(r8),r2
    27ec:	03 ff ff f0 	l.j 27ac <_stack+0xfffddebc>
    27f0:	90 83 00 00 	l.lbs r4,0x0(r3)
    27f4:	00 00 00 00 	l.j 27f4 <rt_uart_write+0xd0>
    27f8:	15 00 00 00 	l.nop 0x0
    27fc:	00 00 00 00 	l.j 27fc <rt_uart_write+0xd8>
    2800:	15 00 00 00 	l.nop 0x0
    2804:	00 00 00 00 	l.j 2804 <rt_uart_write+0xe0>
    2808:	15 00 00 00 	l.nop 0x0

0000280c <rt_uart_read>:
    280c:	95 63 00 30 	l.lhz r11,0x30(r3)
    2810:	d7 e1 17 ec 	l.sw 0xffffffec(r1),r2
    2814:	d7 e1 77 f0 	l.sw 0xfffffff0(r1),r14
    2818:	d7 e1 97 f8 	l.sw 0xfffffff8(r1),r18
    281c:	d7 e1 4f fc 	l.sw 0xfffffffc(r1),r9
    2820:	d7 e1 87 f4 	l.sw 0xfffffff4(r1),r16
    2824:	a5 6b 01 00 	l.andi r11,r11,0x100
    2828:	9c 21 ff ec 	l.addi r1,r1,0xffffffec
    282c:	a8 43 00 00 	l.ori r2,r3,0x0
    2830:	aa 45 00 00 	l.ori r18,r5,0x0
    2834:	bc 0b 00 00 	l.sfeqi r11,0x0
    2838:	10 00 00 21 	l.bf 28bc <rt_uart_read+0xb0>
    283c:	a9 c6 00 00 	l.ori r14,r6,0x0
    2840:	bc 06 00 00 	l.sfeqi r6,0x0
    2844:	0c 00 00 13 	l.bnf 2890 <rt_uart_read+0x84>
    2848:	aa 05 00 00 	l.ori r16,r5,0x0
    284c:	00 00 00 1c 	l.j 28bc <rt_uart_read+0xb0>
    2850:	e1 70 90 02 	l.sub r11,r16,r18
    2854:	8c e7 00 5e 	l.lbz r7,0x5e(r7)
    2858:	d8 10 38 00 	l.sb 0x0(r16),r7
    285c:	8c 82 00 5c 	l.lbz r4,0x5c(r2)
    2860:	9c 84 00 01 	l.addi r4,r4,0x1
    2864:	a4 84 00 ff 	l.andi r4,r4,0xff
    2868:	bc a4 00 3f 	l.sfleui r4,0x3f
    286c:	10 00 00 04 	l.bf 287c <rt_uart_read+0x70>
    2870:	d8 02 20 5c 	l.sb 0x5c(r2),r4
    2874:	9c 80 00 00 	l.addi r4,r0,0x0
    2878:	d8 02 20 5c 	l.sb 0x5c(r2),r4
    287c:	04 00 1a 9a 	l.jal 92e4 <rt_hw_interrupt_enable>
    2880:	9d ce ff ff 	l.addi r14,r14,0xffffffff
    2884:	bc 2e 00 00 	l.sfnei r14,0x0
    2888:	0c 00 00 0c 	l.bnf 28b8 <rt_uart_read+0xac>
    288c:	9e 10 00 01 	l.addi r16,r16,0x1
    2890:	04 00 1a 86 	l.jal 92a8 <rt_hw_interrupt_disable>
    2894:	15 00 00 00 	l.nop 0x0
    2898:	8c 82 00 5c 	l.lbz r4,0x5c(r2)
    289c:	8c c2 00 5d 	l.lbz r6,0x5d(r2)
    28a0:	a8 6b 00 00 	l.ori r3,r11,0x0
    28a4:	e4 06 20 00 	l.sfeq r6,r4
    28a8:	0f ff ff eb 	l.bnf 2854 <_stack+0xfffddf64>
    28ac:	e0 e2 20 00 	l.add r7,r2,r4
    28b0:	04 00 1a 8d 	l.jal 92e4 <rt_hw_interrupt_enable>
    28b4:	15 00 00 00 	l.nop 0x0
    28b8:	e1 70 90 02 	l.sub r11,r16,r18
    28bc:	9c 21 00 14 	l.addi r1,r1,0x14
    28c0:	85 21 ff fc 	l.lwz r9,0xfffffffc(r1)
    28c4:	84 41 ff ec 	l.lwz r2,0xffffffec(r1)
    28c8:	85 c1 ff f0 	l.lwz r14,0xfffffff0(r1)
    28cc:	86 01 ff f4 	l.lwz r16,0xfffffff4(r1)
    28d0:	44 00 48 00 	l.jr r9
    28d4:	86 41 ff f8 	l.lwz r18,0xfffffff8(r1)

000028d8 <rt_uart_close>:
    28d8:	94 63 00 30 	l.lhz r3,0x30(r3)
    28dc:	d7 e1 4f fc 	l.sw 0xfffffffc(r1),r9
    28e0:	a4 63 01 00 	l.andi r3,r3,0x100
    28e4:	bc 03 00 00 	l.sfeqi r3,0x0
    28e8:	10 00 00 04 	l.bf 28f8 <rt_uart_close+0x20>
    28ec:	9c 21 ff fc 	l.addi r1,r1,0xfffffffc
    28f0:	04 00 1a 11 	l.jal 9134 <rt_hw_interrupt_mask>
    28f4:	9c 60 00 02 	l.addi r3,r0,0x2
    28f8:	9c 21 00 04 	l.addi r1,r1,0x4
    28fc:	85 21 ff fc 	l.lwz r9,0xfffffffc(r1)
    2900:	44 00 48 00 	l.jr r9
    2904:	9d 60 00 00 	l.addi r11,r0,0x0

00002908 <rt_uart_open>:
    2908:	94 63 00 30 	l.lhz r3,0x30(r3)
    290c:	d7 e1 4f fc 	l.sw 0xfffffffc(r1),r9
    2910:	d7 e1 17 f8 	l.sw 0xfffffff8(r1),r2
    2914:	a4 63 01 00 	l.andi r3,r3,0x100
    2918:	bc 03 00 00 	l.sfeqi r3,0x0
    291c:	10 00 00 0b 	l.bf 2948 <rt_uart_open+0x40>
    2920:	9c 21 ff f8 	l.addi r1,r1,0xfffffff8
    2924:	18 80 00 00 	l.movhi r4,0x0
    2928:	9c 60 00 02 	l.addi r3,r0,0x2
    292c:	a8 84 29 5c 	l.ori r4,r4,0x295c
    2930:	9c a0 00 00 	l.addi r5,r0,0x0
    2934:	04 00 19 e7 	l.jal 90d0 <rt_hw_interrupt_install>
    2938:	9c 40 00 01 	l.addi r2,r0,0x1
    293c:	18 60 90 00 	l.movhi r3,0x9000
    2940:	a8 63 00 01 	l.ori r3,r3,0x1
    2944:	d8 03 10 00 	l.sb 0x0(r3),r2
    2948:	9c 21 00 08 	l.addi r1,r1,0x8
    294c:	9d 60 00 00 	l.addi r11,r0,0x0
    2950:	85 21 ff fc 	l.lwz r9,0xfffffffc(r1)
    2954:	44 00 48 00 	l.jr r9
    2958:	84 41 ff f8 	l.lwz r2,0xfffffff8(r1)

0000295c <rt_hw_serial_isr_1>:
    295c:	d7 e1 4f fc 	l.sw 0xfffffffc(r1),r9
    2960:	d7 e1 17 f8 	l.sw 0xfffffff8(r1),r2
    2964:	9c 60 48 02 	l.addi r3,r0,0x4802
    2968:	9c 21 ff f8 	l.addi r1,r1,0xfffffff8
    296c:	04 00 1a fb 	l.jal 9558 <mfspr>
    2970:	9c 40 ff fb 	l.addi r2,r0,0xfffffffb
    2974:	9c 60 48 02 	l.addi r3,r0,0x4802
    2978:	04 00 1a f5 	l.jal 954c <mtspr>
    297c:	e0 8b 10 03 	l.and r4,r11,r2
    2980:	18 60 90 00 	l.movhi r3,0x9000
    2984:	a8 43 00 02 	l.ori r2,r3,0x2
    2988:	8c 42 00 00 	l.lbz r2,0x0(r2)
    298c:	a4 42 00 04 	l.andi r2,r2,0x4
    2990:	bc 02 00 00 	l.sfeqi r2,0x0
    2994:	0c 00 00 06 	l.bnf 29ac <rt_hw_serial_isr_1+0x50>
    2998:	15 00 00 00 	l.nop 0x0
    299c:	9c 21 00 08 	l.addi r1,r1,0x8
    29a0:	85 21 ff fc 	l.lwz r9,0xfffffffc(r1)
    29a4:	44 00 48 00 	l.jr r9
    29a8:	84 41 ff f8 	l.lwz r2,0xfffffff8(r1)
    29ac:	18 40 00 01 	l.movhi r2,0x1
    29b0:	8c 83 00 00 	l.lbz r4,0x0(r3)
    29b4:	a8 42 d8 b0 	l.ori r2,r2,0xd8b0
    29b8:	8c 62 00 5d 	l.lbz r3,0x5d(r2)
    29bc:	e0 63 10 00 	l.add r3,r3,r2
    29c0:	04 00 1a 3a 	l.jal 92a8 <rt_hw_interrupt_disable>
    29c4:	d8 03 20 5e 	l.sb 0x5e(r3),r4
    29c8:	8c 82 00 5d 	l.lbz r4,0x5d(r2)
    29cc:	9c 84 00 01 	l.addi r4,r4,0x1
    29d0:	a8 6b 00 00 	l.ori r3,r11,0x0
    29d4:	a4 84 00 ff 	l.andi r4,r4,0xff
    29d8:	bc a4 00 3f 	l.sfleui r4,0x3f
    29dc:	0c 00 00 16 	l.bnf 2a34 <rt_hw_serial_isr_1+0xd8>
    29e0:	d8 02 20 5d 	l.sb 0x5d(r2),r4
    29e4:	04 00 1a 40 	l.jal 92e4 <rt_hw_interrupt_enable>
    29e8:	15 00 00 00 	l.nop 0x0
    29ec:	84 a2 00 38 	l.lwz r5,0x38(r2)
    29f0:	18 60 00 01 	l.movhi r3,0x1
    29f4:	bc 05 00 00 	l.sfeqi r5,0x0
    29f8:	13 ff ff e9 	l.bf 299c <_stack+0xfffde0ac>
    29fc:	a8 63 d8 b0 	l.ori r3,r3,0xd8b0
    2a00:	8c 43 00 5c 	l.lbz r2,0x5c(r3)
    2a04:	8c 63 00 5d 	l.lbz r3,0x5d(r3)
    2a08:	e4 a2 18 00 	l.sfleu r2,r3
    2a0c:	10 00 00 04 	l.bf 2a1c <rt_hw_serial_isr_1+0xc0>
    2a10:	e0 83 10 02 	l.sub r4,r3,r2
    2a14:	9c 63 00 40 	l.addi r3,r3,0x40
    2a18:	e0 83 10 02 	l.sub r4,r3,r2
    2a1c:	9c 21 00 08 	l.addi r1,r1,0x8
    2a20:	18 60 00 01 	l.movhi r3,0x1
    2a24:	85 21 ff fc 	l.lwz r9,0xfffffffc(r1)
    2a28:	a8 63 d8 b0 	l.ori r3,r3,0xd8b0
    2a2c:	44 00 28 00 	l.jr r5
    2a30:	84 41 ff f8 	l.lwz r2,0xfffffff8(r1)
    2a34:	9c 80 00 00 	l.addi r4,r0,0x0
    2a38:	03 ff ff eb 	l.j 29e4 <_stack+0xfffde0f4>
    2a3c:	d8 02 20 5d 	l.sb 0x5d(r2),r4

00002a40 <rt_hw_serial_init>:
    2a40:	d7 e1 17 f8 	l.sw 0xfffffff8(r1),r2
    2a44:	18 40 00 01 	l.movhi r2,0x1
    2a48:	9c 80 00 00 	l.addi r4,r0,0x0
    2a4c:	a8 42 d8 b0 	l.ori r2,r2,0xd8b0
    2a50:	d7 e1 4f fc 	l.sw 0xfffffffc(r1),r9
    2a54:	9c 62 00 5e 	l.addi r3,r2,0x5e
    2a58:	d4 02 20 2c 	l.sw 0x2c(r2),r4
    2a5c:	9c 21 ff f8 	l.addi r1,r1,0xfffffff8
    2a60:	04 00 0d ce 	l.jal 6198 <rt_memset>
    2a64:	9c a0 00 40 	l.addi r5,r0,0x40
    2a68:	18 e0 00 00 	l.movhi r7,0x0
    2a6c:	9c c0 00 00 	l.addi r6,r0,0x0
    2a70:	a8 e7 27 1c 	l.ori r7,r7,0x271c
    2a74:	d8 02 30 5d 	l.sb 0x5d(r2),r6
    2a78:	d4 02 38 40 	l.sw 0x40(r2),r7
    2a7c:	18 e0 00 00 	l.movhi r7,0x0
    2a80:	d8 02 30 5c 	l.sb 0x5c(r2),r6
    2a84:	a8 e7 29 08 	l.ori r7,r7,0x2908
    2a88:	d4 02 30 54 	l.sw 0x54(r2),r6
    2a8c:	d4 02 38 44 	l.sw 0x44(r2),r7
    2a90:	18 e0 00 00 	l.movhi r7,0x0
    2a94:	d4 02 30 58 	l.sw 0x58(r2),r6
    2a98:	a8 e7 28 d8 	l.ori r7,r7,0x28d8
    2a9c:	18 80 00 01 	l.movhi r4,0x1
    2aa0:	d4 02 38 48 	l.sw 0x48(r2),r7
    2aa4:	18 e0 00 00 	l.movhi r7,0x0
    2aa8:	a8 62 00 00 	l.ori r3,r2,0x0
    2aac:	a8 e7 28 0c 	l.ori r7,r7,0x280c
    2ab0:	a8 84 9a 9e 	l.ori r4,r4,0x9a9e
    2ab4:	d4 02 38 4c 	l.sw 0x4c(r2),r7
    2ab8:	18 e0 00 00 	l.movhi r7,0x0
    2abc:	9c a0 01 43 	l.addi r5,r0,0x143
    2ac0:	a8 e7 27 24 	l.ori r7,r7,0x2724
    2ac4:	d4 02 38 50 	l.sw 0x50(r2),r7
    2ac8:	9c 21 00 08 	l.addi r1,r1,0x8
    2acc:	85 21 ff fc 	l.lwz r9,0xfffffffc(r1)
    2ad0:	00 00 00 ac 	l.j 2d80 <rt_device_register>
    2ad4:	84 41 ff f8 	l.lwz r2,0xfffffff8(r1)

00002ad8 <rt_system_tick_init>:
    2ad8:	44 00 48 00 	l.jr r9
    2adc:	15 00 00 00 	l.nop 0x0

00002ae0 <rt_tick_get>:
    2ae0:	18 60 00 01 	l.movhi r3,0x1
    2ae4:	a8 63 a7 dc 	l.ori r3,r3,0xa7dc
    2ae8:	44 00 48 00 	l.jr r9
    2aec:	85 63 00 00 	l.lwz r11,0x0(r3)

00002af0 <rt_tick_set>:
    2af0:	d7 e1 4f fc 	l.sw 0xfffffffc(r1),r9
    2af4:	d7 e1 17 f8 	l.sw 0xfffffff8(r1),r2
    2af8:	9c 21 ff f8 	l.addi r1,r1,0xfffffff8
    2afc:	04 00 19 eb 	l.jal 92a8 <rt_hw_interrupt_disable>
    2b00:	a8 43 00 00 	l.ori r2,r3,0x0
    2b04:	18 80 00 01 	l.movhi r4,0x1
    2b08:	a8 6b 00 00 	l.ori r3,r11,0x0
    2b0c:	a8 84 a7 dc 	l.ori r4,r4,0xa7dc
    2b10:	d4 04 10 00 	l.sw 0x0(r4),r2
    2b14:	9c 21 00 08 	l.addi r1,r1,0x8
    2b18:	85 21 ff fc 	l.lwz r9,0xfffffffc(r1)
    2b1c:	00 00 19 f2 	l.j 92e4 <rt_hw_interrupt_enable>
    2b20:	84 41 ff f8 	l.lwz r2,0xfffffff8(r1)

00002b24 <rt_tick_increase>:
    2b24:	18 60 00 01 	l.movhi r3,0x1
    2b28:	d7 e1 4f fc 	l.sw 0xfffffffc(r1),r9
    2b2c:	a8 63 a7 dc 	l.ori r3,r3,0xa7dc
    2b30:	9c 21 ff fc 	l.addi r1,r1,0xfffffffc
    2b34:	84 83 00 00 	l.lwz r4,0x0(r3)
    2b38:	9c 84 00 01 	l.addi r4,r4,0x1
    2b3c:	04 00 16 0c 	l.jal 836c <rt_thread_self>
    2b40:	d4 03 20 00 	l.sw 0x0(r3),r4
    2b44:	84 6b 00 60 	l.lwz r3,0x60(r11)
    2b48:	9c 63 ff ff 	l.addi r3,r3,0xffffffff
    2b4c:	bc 23 00 00 	l.sfnei r3,0x0
    2b50:	10 00 00 05 	l.bf 2b64 <rt_tick_increase+0x40>
    2b54:	d4 0b 18 60 	l.sw 0x60(r11),r3
    2b58:	84 6b 00 5c 	l.lwz r3,0x5c(r11)
    2b5c:	04 00 16 8f 	l.jal 8598 <rt_thread_yield>
    2b60:	d4 0b 18 60 	l.sw 0x60(r11),r3
    2b64:	9c 21 00 04 	l.addi r1,r1,0x4
    2b68:	85 21 ff fc 	l.lwz r9,0xfffffffc(r1)
    2b6c:	00 00 18 d0 	l.j 8eac <rt_timer_check>
    2b70:	15 00 00 00 	l.nop 0x0

00002b74 <rt_tick_from_millisecond>:
    2b74:	e0 83 18 00 	l.add r4,r3,r3
    2b78:	9c a0 03 e8 	l.addi r5,r0,0x3e8
    2b7c:	e0 84 18 00 	l.add r4,r4,r3
    2b80:	b9 64 00 05 	l.slli r11,r4,0x5
    2b84:	e0 84 58 00 	l.add r4,r4,r11
    2b88:	e0 64 18 00 	l.add r3,r4,r3
    2b8c:	9d 63 03 e7 	l.addi r11,r3,0x3e7
    2b90:	44 00 48 00 	l.jr r9
    2b94:	e1 6b 2b 0a 	l.divu r11,r11,r5

00002b98 <rt_device_unregister>:
    2b98:	d7 e1 4f fc 	l.sw 0xfffffffc(r1),r9
    2b9c:	04 00 13 7c 	l.jal 798c <rt_object_detach>
    2ba0:	9c 21 ff fc 	l.addi r1,r1,0xfffffffc
    2ba4:	9c 21 00 04 	l.addi r1,r1,0x4
    2ba8:	85 21 ff fc 	l.lwz r9,0xfffffffc(r1)
    2bac:	44 00 48 00 	l.jr r9
    2bb0:	9d 60 00 00 	l.addi r11,r0,0x0

00002bb4 <rt_device_init_all>:
    2bb4:	d7 e1 17 f4 	l.sw 0xfffffff4(r1),r2
    2bb8:	18 40 00 01 	l.movhi r2,0x1
    2bbc:	18 60 00 01 	l.movhi r3,0x1
    2bc0:	a8 42 a6 28 	l.ori r2,r2,0xa628
    2bc4:	d7 e1 4f fc 	l.sw 0xfffffffc(r1),r9
    2bc8:	d7 e1 77 f8 	l.sw 0xfffffff8(r1),r14
    2bcc:	84 42 00 74 	l.lwz r2,0x74(r2)
    2bd0:	a8 63 a6 9c 	l.ori r3,r3,0xa69c
    2bd4:	e4 02 18 00 	l.sfeq r2,r3
    2bd8:	0c 00 00 09 	l.bnf 2bfc <rt_device_init_all+0x48>
    2bdc:	9c 21 ff ec 	l.addi r1,r1,0xffffffec
    2be0:	00 00 00 20 	l.j 2c60 <rt_device_init_all+0xac>
    2be4:	9c 21 00 14 	l.addi r1,r1,0x14
    2be8:	84 42 00 00 	l.lwz r2,0x0(r2)
    2bec:	a8 63 a6 9c 	l.ori r3,r3,0xa69c
    2bf0:	e4 22 18 00 	l.sfne r2,r3
    2bf4:	0c 00 00 1a 	l.bnf 2c5c <rt_device_init_all+0xa8>
    2bf8:	15 00 00 00 	l.nop 0x0
    2bfc:	9d c2 ff dc 	l.addi r14,r2,0xffffffdc
    2c00:	85 6e 00 40 	l.lwz r11,0x40(r14)
    2c04:	bc 0b 00 00 	l.sfeqi r11,0x0
    2c08:	13 ff ff f8 	l.bf 2be8 <_stack+0xfffde2f8>
    2c0c:	18 60 00 01 	l.movhi r3,0x1
    2c10:	94 6e 00 30 	l.lhz r3,0x30(r14)
    2c14:	a4 63 00 10 	l.andi r3,r3,0x10
    2c18:	bc 23 00 00 	l.sfnei r3,0x0
    2c1c:	13 ff ff f3 	l.bf 2be8 <_stack+0xfffde2f8>
    2c20:	18 60 00 01 	l.movhi r3,0x1
    2c24:	48 00 58 00 	l.jalr r11
    2c28:	a8 6e 00 00 	l.ori r3,r14,0x0
    2c2c:	bc 0b 00 00 	l.sfeqi r11,0x0
    2c30:	0c 00 00 11 	l.bnf 2c74 <rt_device_init_all+0xc0>
    2c34:	18 60 00 01 	l.movhi r3,0x1
    2c38:	94 6e 00 30 	l.lhz r3,0x30(r14)
    2c3c:	a8 63 00 10 	l.ori r3,r3,0x10
    2c40:	84 42 00 00 	l.lwz r2,0x0(r2)
    2c44:	dc 0e 18 30 	l.sh 0x30(r14),r3
    2c48:	18 60 00 01 	l.movhi r3,0x1
    2c4c:	a8 63 a6 9c 	l.ori r3,r3,0xa69c
    2c50:	e4 22 18 00 	l.sfne r2,r3
    2c54:	13 ff ff ea 	l.bf 2bfc <_stack+0xfffde30c>
    2c58:	15 00 00 00 	l.nop 0x0
    2c5c:	9c 21 00 14 	l.addi r1,r1,0x14
    2c60:	9d 60 00 00 	l.addi r11,r0,0x0
    2c64:	85 21 ff fc 	l.lwz r9,0xfffffffc(r1)
    2c68:	84 41 ff f4 	l.lwz r2,0xfffffff4(r1)
    2c6c:	44 00 48 00 	l.jr r9
    2c70:	85 c1 ff f8 	l.lwz r14,0xfffffff8(r1)
    2c74:	d4 01 70 00 	l.sw 0x0(r1),r14
    2c78:	a8 63 9a a4 	l.ori r3,r3,0x9aa4
    2c7c:	04 00 0f 1f 	l.jal 68f8 <rt_kprintf>
    2c80:	d4 01 58 04 	l.sw 0x4(r1),r11
    2c84:	03 ff ff d9 	l.j 2be8 <_stack+0xfffde2f8>
    2c88:	18 60 00 01 	l.movhi r3,0x1

00002c8c <rt_device_find>:
    2c8c:	d7 e1 87 f8 	l.sw 0xfffffff8(r1),r16
    2c90:	d7 e1 4f fc 	l.sw 0xfffffffc(r1),r9
    2c94:	d7 e1 17 f0 	l.sw 0xfffffff0(r1),r2
    2c98:	d7 e1 77 f4 	l.sw 0xfffffff4(r1),r14
    2c9c:	9c 21 ff f0 	l.addi r1,r1,0xfffffff0
    2ca0:	04 00 15 b3 	l.jal 836c <rt_thread_self>
    2ca4:	aa 03 00 00 	l.ori r16,r3,0x0
    2ca8:	bc 0b 00 00 	l.sfeqi r11,0x0
    2cac:	10 00 00 04 	l.bf 2cbc <rt_device_find+0x30>
    2cb0:	18 40 00 01 	l.movhi r2,0x1
    2cb4:	04 00 14 ff 	l.jal 80b0 <rt_enter_critical>
    2cb8:	15 00 00 00 	l.nop 0x0
    2cbc:	18 60 00 01 	l.movhi r3,0x1
    2cc0:	a8 42 a6 28 	l.ori r2,r2,0xa628
    2cc4:	a8 63 a6 9c 	l.ori r3,r3,0xa69c
    2cc8:	84 42 00 74 	l.lwz r2,0x74(r2)
    2ccc:	e4 02 18 00 	l.sfeq r2,r3
    2cd0:	0c 00 00 09 	l.bnf 2cf4 <rt_device_find+0x68>
    2cd4:	9d c2 ff dc 	l.addi r14,r2,0xffffffdc
    2cd8:	00 00 00 1c 	l.j 2d48 <rt_device_find+0xbc>
    2cdc:	15 00 00 00 	l.nop 0x0
    2ce0:	84 42 00 00 	l.lwz r2,0x0(r2)
    2ce4:	a8 63 a6 9c 	l.ori r3,r3,0xa69c
    2ce8:	e4 22 18 00 	l.sfne r2,r3
    2cec:	0c 00 00 17 	l.bnf 2d48 <rt_device_find+0xbc>
    2cf0:	9d c2 ff dc 	l.addi r14,r2,0xffffffdc
    2cf4:	a8 90 00 00 	l.ori r4,r16,0x0
    2cf8:	a8 6e 00 00 	l.ori r3,r14,0x0
    2cfc:	04 00 0e 5f 	l.jal 6678 <rt_strncmp>
    2d00:	9c a0 00 20 	l.addi r5,r0,0x20
    2d04:	bc 2b 00 00 	l.sfnei r11,0x0
    2d08:	13 ff ff f6 	l.bf 2ce0 <_stack+0xfffde3f0>
    2d0c:	18 60 00 01 	l.movhi r3,0x1
    2d10:	04 00 15 97 	l.jal 836c <rt_thread_self>
    2d14:	15 00 00 00 	l.nop 0x0
    2d18:	bc 0b 00 00 	l.sfeqi r11,0x0
    2d1c:	10 00 00 05 	l.bf 2d30 <rt_device_find+0xa4>
    2d20:	a9 6e 00 00 	l.ori r11,r14,0x0
    2d24:	04 00 14 ef 	l.jal 80e0 <rt_exit_critical>
    2d28:	15 00 00 00 	l.nop 0x0
    2d2c:	a9 6e 00 00 	l.ori r11,r14,0x0
    2d30:	9c 21 00 10 	l.addi r1,r1,0x10
    2d34:	85 21 ff fc 	l.lwz r9,0xfffffffc(r1)
    2d38:	84 41 ff f0 	l.lwz r2,0xfffffff0(r1)
    2d3c:	85 c1 ff f4 	l.lwz r14,0xfffffff4(r1)
    2d40:	44 00 48 00 	l.jr r9
    2d44:	86 01 ff f8 	l.lwz r16,0xfffffff8(r1)
    2d48:	04 00 15 89 	l.jal 836c <rt_thread_self>
    2d4c:	15 00 00 00 	l.nop 0x0
    2d50:	bc 0b 00 00 	l.sfeqi r11,0x0
    2d54:	13 ff ff f7 	l.bf 2d30 <_stack+0xfffde440>
    2d58:	15 00 00 00 	l.nop 0x0
    2d5c:	04 00 14 e1 	l.jal 80e0 <rt_exit_critical>
    2d60:	15 00 00 00 	l.nop 0x0
    2d64:	9c 21 00 10 	l.addi r1,r1,0x10
    2d68:	9d 60 00 00 	l.addi r11,r0,0x0
    2d6c:	85 21 ff fc 	l.lwz r9,0xfffffffc(r1)
    2d70:	84 41 ff f0 	l.lwz r2,0xfffffff0(r1)
    2d74:	85 c1 ff f4 	l.lwz r14,0xfffffff4(r1)
    2d78:	44 00 48 00 	l.jr r9
    2d7c:	86 01 ff f8 	l.lwz r16,0xfffffff8(r1)

00002d80 <rt_device_register>:
    2d80:	d7 e1 17 ec 	l.sw 0xffffffec(r1),r2
    2d84:	d7 e1 77 f0 	l.sw 0xfffffff0(r1),r14
    2d88:	d7 e1 87 f4 	l.sw 0xfffffff4(r1),r16
    2d8c:	d7 e1 97 f8 	l.sw 0xfffffff8(r1),r18
    2d90:	d7 e1 4f fc 	l.sw 0xfffffffc(r1),r9
    2d94:	a8 43 00 00 	l.ori r2,r3,0x0
    2d98:	9c 21 ff ec 	l.addi r1,r1,0xffffffec
    2d9c:	aa 04 00 00 	l.ori r16,r4,0x0
    2da0:	a6 45 ff ff 	l.andi r18,r5,0xffff
    2da4:	bc 03 00 00 	l.sfeqi r3,0x0
    2da8:	0c 00 00 0a 	l.bnf 2dd0 <rt_device_register+0x50>
    2dac:	9d c0 ff ff 	l.addi r14,r0,0xffffffff
    2db0:	9c 21 00 14 	l.addi r1,r1,0x14
    2db4:	a9 6e 00 00 	l.ori r11,r14,0x0
    2db8:	85 21 ff fc 	l.lwz r9,0xfffffffc(r1)
    2dbc:	84 41 ff ec 	l.lwz r2,0xffffffec(r1)
    2dc0:	85 c1 ff f0 	l.lwz r14,0xfffffff0(r1)
    2dc4:	86 01 ff f4 	l.lwz r16,0xfffffff4(r1)
    2dc8:	44 00 48 00 	l.jr r9
    2dcc:	86 41 ff f8 	l.lwz r18,0xfffffff8(r1)
    2dd0:	07 ff ff af 	l.jal 2c8c <_stack+0xfffde39c>
    2dd4:	a8 64 00 00 	l.ori r3,r4,0x0
    2dd8:	bc 2b 00 00 	l.sfnei r11,0x0
    2ddc:	13 ff ff f5 	l.bf 2db0 <_stack+0xfffde4c0>
    2de0:	a8 62 00 00 	l.ori r3,r2,0x0
    2de4:	9c 80 00 07 	l.addi r4,r0,0x7
    2de8:	a8 b0 00 00 	l.ori r5,r16,0x0
    2dec:	04 00 12 bf 	l.jal 78e8 <rt_object_init>
    2df0:	a9 cb 00 00 	l.ori r14,r11,0x0
    2df4:	03 ff ff ef 	l.j 2db0 <_stack+0xfffde4c0>
    2df8:	dc 02 90 30 	l.sh 0x30(r2),r18

00002dfc <rt_device_init>:
    2dfc:	d7 e1 17 f4 	l.sw 0xfffffff4(r1),r2
    2e00:	d7 e1 77 f8 	l.sw 0xfffffff8(r1),r14
    2e04:	84 43 00 40 	l.lwz r2,0x40(r3)
    2e08:	d7 e1 4f fc 	l.sw 0xfffffffc(r1),r9
    2e0c:	a9 c3 00 00 	l.ori r14,r3,0x0
    2e10:	9c 21 ff ec 	l.addi r1,r1,0xffffffec
    2e14:	bc 02 00 00 	l.sfeqi r2,0x0
    2e18:	10 00 00 08 	l.bf 2e38 <rt_device_init+0x3c>
    2e1c:	a9 62 00 00 	l.ori r11,r2,0x0
    2e20:	94 83 00 30 	l.lhz r4,0x30(r3)
    2e24:	9c 40 00 00 	l.addi r2,r0,0x0
    2e28:	a4 84 00 10 	l.andi r4,r4,0x10
    2e2c:	e4 24 10 00 	l.sfne r4,r2
    2e30:	0c 00 00 08 	l.bnf 2e50 <rt_device_init+0x54>
    2e34:	15 00 00 00 	l.nop 0x0
    2e38:	9c 21 00 14 	l.addi r1,r1,0x14
    2e3c:	a9 62 00 00 	l.ori r11,r2,0x0
    2e40:	85 21 ff fc 	l.lwz r9,0xfffffffc(r1)
    2e44:	84 41 ff f4 	l.lwz r2,0xfffffff4(r1)
    2e48:	44 00 48 00 	l.jr r9
    2e4c:	85 c1 ff f8 	l.lwz r14,0xfffffff8(r1)
    2e50:	48 00 58 00 	l.jalr r11
    2e54:	15 00 00 00 	l.nop 0x0
    2e58:	bc 0b 00 00 	l.sfeqi r11,0x0
    2e5c:	0c 00 00 0b 	l.bnf 2e88 <rt_device_init+0x8c>
    2e60:	a8 4b 00 00 	l.ori r2,r11,0x0
    2e64:	94 6e 00 30 	l.lhz r3,0x30(r14)
    2e68:	a8 63 00 10 	l.ori r3,r3,0x10
    2e6c:	a9 62 00 00 	l.ori r11,r2,0x0
    2e70:	dc 0e 18 30 	l.sh 0x30(r14),r3
    2e74:	9c 21 00 14 	l.addi r1,r1,0x14
    2e78:	85 21 ff fc 	l.lwz r9,0xfffffffc(r1)
    2e7c:	84 41 ff f4 	l.lwz r2,0xfffffff4(r1)
    2e80:	44 00 48 00 	l.jr r9
    2e84:	85 c1 ff f8 	l.lwz r14,0xfffffff8(r1)
    2e88:	18 60 00 01 	l.movhi r3,0x1
    2e8c:	d4 01 70 00 	l.sw 0x0(r1),r14
    2e90:	a8 63 9a a4 	l.ori r3,r3,0x9aa4
    2e94:	04 00 0e 99 	l.jal 68f8 <rt_kprintf>
    2e98:	d4 01 58 04 	l.sw 0x4(r1),r11
    2e9c:	03 ff ff e8 	l.j 2e3c <_stack+0xfffde54c>
    2ea0:	9c 21 00 14 	l.addi r1,r1,0x14

00002ea4 <rt_device_open>:
    2ea4:	d7 e1 17 f0 	l.sw 0xfffffff0(r1),r2
    2ea8:	94 43 00 30 	l.lhz r2,0x30(r3)
    2eac:	d7 e1 77 f4 	l.sw 0xfffffff4(r1),r14
    2eb0:	d7 e1 87 f8 	l.sw 0xfffffff8(r1),r16
    2eb4:	d7 e1 4f fc 	l.sw 0xfffffffc(r1),r9
    2eb8:	a6 04 ff ff 	l.andi r16,r4,0xffff
    2ebc:	a4 82 00 10 	l.andi r4,r2,0x10
    2ec0:	9c 21 ff e8 	l.addi r1,r1,0xffffffe8
    2ec4:	a9 c3 00 00 	l.ori r14,r3,0x0
    2ec8:	bc 24 00 00 	l.sfnei r4,0x0
    2ecc:	10 00 00 0e 	l.bf 2f04 <rt_device_open+0x60>
    2ed0:	a8 a2 00 00 	l.ori r5,r2,0x0
    2ed4:	85 63 00 40 	l.lwz r11,0x40(r3)
    2ed8:	bc 0b 00 00 	l.sfeqi r11,0x0
    2edc:	10 00 00 09 	l.bf 2f00 <rt_device_open+0x5c>
    2ee0:	a8 a2 00 10 	l.ori r5,r2,0x10
    2ee4:	48 00 58 00 	l.jalr r11
    2ee8:	15 00 00 00 	l.nop 0x0
    2eec:	bc 2b 00 00 	l.sfnei r11,0x0
    2ef0:	10 00 00 23 	l.bf 2f7c <rt_device_open+0xd8>
    2ef4:	a8 4b 00 00 	l.ori r2,r11,0x0
    2ef8:	94 4e 00 30 	l.lhz r2,0x30(r14)
    2efc:	a8 a2 00 10 	l.ori r5,r2,0x10
    2f00:	dc 0e 28 30 	l.sh 0x30(r14),r5
    2f04:	a4 a5 00 08 	l.andi r5,r5,0x8
    2f08:	bc 05 00 00 	l.sfeqi r5,0x0
    2f0c:	0c 00 00 23 	l.bnf 2f98 <rt_device_open+0xf4>
    2f10:	15 00 00 00 	l.nop 0x0
    2f14:	84 4e 00 44 	l.lwz r2,0x44(r14)
    2f18:	bc 02 00 00 	l.sfeqi r2,0x0
    2f1c:	10 00 00 0f 	l.bf 2f58 <rt_device_open+0xb4>
    2f20:	a8 6e 00 00 	l.ori r3,r14,0x0
    2f24:	48 00 10 00 	l.jalr r2
    2f28:	a8 90 00 00 	l.ori r4,r16,0x0
    2f2c:	ac 6b ff fa 	l.xori r3,r11,0xfffffffa
    2f30:	e0 80 18 02 	l.sub r4,r0,r3
    2f34:	e0 64 18 04 	l.or r3,r4,r3
    2f38:	bd 63 00 00 	l.sfgesi r3,0x0
    2f3c:	10 00 00 07 	l.bf 2f58 <rt_device_open+0xb4>
    2f40:	a8 4b 00 00 	l.ori r2,r11,0x0
    2f44:	e0 60 58 02 	l.sub r3,r0,r11
    2f48:	e0 63 58 04 	l.or r3,r3,r11
    2f4c:	bd 83 00 00 	l.sfltsi r3,0x0
    2f50:	10 00 00 04 	l.bf 2f60 <rt_device_open+0xbc>
    2f54:	15 00 00 00 	l.nop 0x0
    2f58:	aa 10 00 08 	l.ori r16,r16,0x8
    2f5c:	dc 0e 80 32 	l.sh 0x32(r14),r16
    2f60:	9c 21 00 18 	l.addi r1,r1,0x18
    2f64:	a9 62 00 00 	l.ori r11,r2,0x0
    2f68:	85 21 ff fc 	l.lwz r9,0xfffffffc(r1)
    2f6c:	84 41 ff f0 	l.lwz r2,0xfffffff0(r1)
    2f70:	85 c1 ff f4 	l.lwz r14,0xfffffff4(r1)
    2f74:	44 00 48 00 	l.jr r9
    2f78:	86 01 ff f8 	l.lwz r16,0xfffffff8(r1)
    2f7c:	18 60 00 01 	l.movhi r3,0x1
    2f80:	d4 01 70 00 	l.sw 0x0(r1),r14
    2f84:	a8 63 9a a4 	l.ori r3,r3,0x9aa4
    2f88:	04 00 0e 5c 	l.jal 68f8 <rt_kprintf>
    2f8c:	d4 01 58 04 	l.sw 0x4(r1),r11
    2f90:	03 ff ff f5 	l.j 2f64 <_stack+0xfffde674>
    2f94:	9c 21 00 18 	l.addi r1,r1,0x18
    2f98:	94 6e 00 32 	l.lhz r3,0x32(r14)
    2f9c:	a4 63 00 08 	l.andi r3,r3,0x8
    2fa0:	bc 23 00 00 	l.sfnei r3,0x0
    2fa4:	0f ff ff dc 	l.bnf 2f14 <_stack+0xfffde624>
    2fa8:	9c 40 ff f9 	l.addi r2,r0,0xfffffff9
    2fac:	03 ff ff ee 	l.j 2f64 <_stack+0xfffde674>
    2fb0:	9c 21 00 18 	l.addi r1,r1,0x18

00002fb4 <rt_device_close>:
    2fb4:	d7 e1 17 f8 	l.sw 0xfffffff8(r1),r2
    2fb8:	d7 e1 4f fc 	l.sw 0xfffffffc(r1),r9
    2fbc:	85 63 00 48 	l.lwz r11,0x48(r3)
    2fc0:	9c 21 ff f8 	l.addi r1,r1,0xfffffff8
    2fc4:	bc 0b 00 00 	l.sfeqi r11,0x0
    2fc8:	10 00 00 0e 	l.bf 3000 <rt_device_close+0x4c>
    2fcc:	a8 43 00 00 	l.ori r2,r3,0x0
    2fd0:	48 00 58 00 	l.jalr r11
    2fd4:	15 00 00 00 	l.nop 0x0
    2fd8:	ac 6b ff fa 	l.xori r3,r11,0xfffffffa
    2fdc:	e0 80 18 02 	l.sub r4,r0,r3
    2fe0:	e0 64 18 04 	l.or r3,r4,r3
    2fe4:	bd 63 00 00 	l.sfgesi r3,0x0
    2fe8:	10 00 00 06 	l.bf 3000 <rt_device_close+0x4c>
    2fec:	e0 60 58 02 	l.sub r3,r0,r11
    2ff0:	e0 63 58 04 	l.or r3,r3,r11
    2ff4:	bd 83 00 00 	l.sfltsi r3,0x0
    2ff8:	10 00 00 04 	l.bf 3008 <rt_device_close+0x54>
    2ffc:	15 00 00 00 	l.nop 0x0
    3000:	9c 60 00 00 	l.addi r3,r0,0x0
    3004:	dc 02 18 32 	l.sh 0x32(r2),r3
    3008:	9c 21 00 08 	l.addi r1,r1,0x8
    300c:	85 21 ff fc 	l.lwz r9,0xfffffffc(r1)
    3010:	44 00 48 00 	l.jr r9
    3014:	84 41 ff f8 	l.lwz r2,0xfffffff8(r1)

00003018 <rt_device_read>:
    3018:	d7 e1 17 f8 	l.sw 0xfffffff8(r1),r2
    301c:	d7 e1 4f fc 	l.sw 0xfffffffc(r1),r9
    3020:	84 43 00 4c 	l.lwz r2,0x4c(r3)
    3024:	bc 02 00 00 	l.sfeqi r2,0x0
    3028:	10 00 00 06 	l.bf 3040 <rt_device_read+0x28>
    302c:	9c 21 ff f8 	l.addi r1,r1,0xfffffff8
    3030:	9c 21 00 08 	l.addi r1,r1,0x8
    3034:	85 21 ff fc 	l.lwz r9,0xfffffffc(r1)
    3038:	44 00 10 00 	l.jr r2
    303c:	84 41 ff f8 	l.lwz r2,0xfffffff8(r1)
    3040:	04 00 0c 25 	l.jal 60d4 <rt_set_errno>
    3044:	9c 60 ff fa 	l.addi r3,r0,0xfffffffa
    3048:	9c 21 00 08 	l.addi r1,r1,0x8
    304c:	a9 62 00 00 	l.ori r11,r2,0x0
    3050:	85 21 ff fc 	l.lwz r9,0xfffffffc(r1)
    3054:	44 00 48 00 	l.jr r9
    3058:	84 41 ff f8 	l.lwz r2,0xfffffff8(r1)

0000305c <rt_device_write>:
    305c:	d7 e1 17 f8 	l.sw 0xfffffff8(r1),r2
    3060:	d7 e1 4f fc 	l.sw 0xfffffffc(r1),r9
    3064:	84 43 00 50 	l.lwz r2,0x50(r3)
    3068:	bc 02 00 00 	l.sfeqi r2,0x0
    306c:	10 00 00 06 	l.bf 3084 <rt_device_write+0x28>
    3070:	9c 21 ff f8 	l.addi r1,r1,0xfffffff8
    3074:	9c 21 00 08 	l.addi r1,r1,0x8
    3078:	85 21 ff fc 	l.lwz r9,0xfffffffc(r1)
    307c:	44 00 10 00 	l.jr r2
    3080:	84 41 ff f8 	l.lwz r2,0xfffffff8(r1)
    3084:	04 00 0c 14 	l.jal 60d4 <rt_set_errno>
    3088:	9c 60 ff fa 	l.addi r3,r0,0xfffffffa
    308c:	9c 21 00 08 	l.addi r1,r1,0x8
    3090:	a9 62 00 00 	l.ori r11,r2,0x0
    3094:	85 21 ff fc 	l.lwz r9,0xfffffffc(r1)
    3098:	44 00 48 00 	l.jr r9
    309c:	84 41 ff f8 	l.lwz r2,0xfffffff8(r1)

000030a0 <rt_device_control>:
    30a0:	d7 e1 4f fc 	l.sw 0xfffffffc(r1),r9
    30a4:	84 c3 00 54 	l.lwz r6,0x54(r3)
    30a8:	9c 21 ff fc 	l.addi r1,r1,0xfffffffc
    30ac:	bc 06 00 00 	l.sfeqi r6,0x0
    30b0:	10 00 00 06 	l.bf 30c8 <rt_device_control+0x28>
    30b4:	a4 84 00 ff 	l.andi r4,r4,0xff
    30b8:	9c 21 00 04 	l.addi r1,r1,0x4
    30bc:	85 21 ff fc 	l.lwz r9,0xfffffffc(r1)
    30c0:	44 00 30 00 	l.jr r6
    30c4:	15 00 00 00 	l.nop 0x0
    30c8:	9c 21 00 04 	l.addi r1,r1,0x4
    30cc:	85 21 ff fc 	l.lwz r9,0xfffffffc(r1)
    30d0:	44 00 48 00 	l.jr r9
    30d4:	a9 66 00 00 	l.ori r11,r6,0x0

000030d8 <rt_device_set_rx_indicate>:
    30d8:	d4 03 20 38 	l.sw 0x38(r3),r4
    30dc:	44 00 48 00 	l.jr r9
    30e0:	9d 60 00 00 	l.addi r11,r0,0x0

000030e4 <rt_device_set_tx_complete>:
    30e4:	d4 03 20 3c 	l.sw 0x3c(r3),r4
    30e8:	44 00 48 00 	l.jr r9
    30ec:	9d 60 00 00 	l.addi r11,r0,0x0

000030f0 <rt_thread_idle_sethook>:
    30f0:	18 80 00 01 	l.movhi r4,0x1
    30f4:	a8 84 b0 90 	l.ori r4,r4,0xb090
    30f8:	44 00 48 00 	l.jr r9
    30fc:	d4 04 18 00 	l.sw 0x0(r4),r3

00003100 <rt_thread_idle_excute>:
    3100:	d7 e1 17 f4 	l.sw 0xfffffff4(r1),r2
    3104:	18 40 00 01 	l.movhi r2,0x1
    3108:	d7 e1 4f fc 	l.sw 0xfffffffc(r1),r9
    310c:	a8 42 da 6c 	l.ori r2,r2,0xda6c
    3110:	d7 e1 77 f8 	l.sw 0xfffffff8(r1),r14
    3114:	84 62 00 00 	l.lwz r3,0x0(r2)
    3118:	e4 03 10 00 	l.sfeq r3,r2
    311c:	10 00 00 24 	l.bf 31ac <rt_thread_idle_excute+0xac>
    3120:	9c 21 ff f4 	l.addi r1,r1,0xfffffff4
    3124:	04 00 18 61 	l.jal 92a8 <rt_hw_interrupt_disable>
    3128:	15 00 00 00 	l.nop 0x0
    312c:	84 82 00 00 	l.lwz r4,0x0(r2)
    3130:	e4 04 10 00 	l.sfeq r4,r2
    3134:	10 00 00 23 	l.bf 31c0 <rt_thread_idle_excute+0xc0>
    3138:	a9 cb 00 00 	l.ori r14,r11,0x0
    313c:	9c 44 ff d4 	l.addi r2,r4,0xffffffd4
    3140:	84 c4 00 00 	l.lwz r6,0x0(r4)
    3144:	84 62 00 30 	l.lwz r3,0x30(r2)
    3148:	84 a2 00 a8 	l.lwz r5,0xa8(r2)
    314c:	d4 06 18 04 	l.sw 0x4(r6),r3
    3150:	bc 05 00 00 	l.sfeqi r5,0x0
    3154:	84 62 00 30 	l.lwz r3,0x30(r2)
    3158:	d4 02 20 30 	l.sw 0x30(r2),r4
    315c:	d4 03 30 00 	l.sw 0x0(r3),r6
    3160:	10 00 00 04 	l.bf 3170 <rt_thread_idle_excute+0x70>
    3164:	d4 04 20 00 	l.sw 0x0(r4),r4
    3168:	48 00 28 00 	l.jalr r5
    316c:	a8 62 00 00 	l.ori r3,r2,0x0
    3170:	04 00 12 77 	l.jal 7b4c <rt_object_is_systemobject>
    3174:	a8 62 00 00 	l.ori r3,r2,0x0
    3178:	bc 2b 00 01 	l.sfnei r11,0x1
    317c:	0c 00 00 11 	l.bnf 31c0 <rt_thread_idle_excute+0xc0>
    3180:	15 00 00 00 	l.nop 0x0
    3184:	04 00 18 58 	l.jal 92e4 <rt_hw_interrupt_enable>
    3188:	a8 6e 00 00 	l.ori r3,r14,0x0
    318c:	04 00 0f 7c 	l.jal 6f7c <rt_free>
    3190:	84 62 00 40 	l.lwz r3,0x40(r2)
    3194:	9c 21 00 0c 	l.addi r1,r1,0xc
    3198:	a8 62 00 00 	l.ori r3,r2,0x0
    319c:	85 21 ff fc 	l.lwz r9,0xfffffffc(r1)
    31a0:	84 41 ff f4 	l.lwz r2,0xfffffff4(r1)
    31a4:	00 00 12 4e 	l.j 7adc <rt_object_delete>
    31a8:	85 c1 ff f8 	l.lwz r14,0xfffffff8(r1)
    31ac:	9c 21 00 0c 	l.addi r1,r1,0xc
    31b0:	85 21 ff fc 	l.lwz r9,0xfffffffc(r1)
    31b4:	84 41 ff f4 	l.lwz r2,0xfffffff4(r1)
    31b8:	44 00 48 00 	l.jr r9
    31bc:	85 c1 ff f8 	l.lwz r14,0xfffffff8(r1)
    31c0:	9c 21 00 0c 	l.addi r1,r1,0xc
    31c4:	a8 6e 00 00 	l.ori r3,r14,0x0
    31c8:	85 21 ff fc 	l.lwz r9,0xfffffffc(r1)
    31cc:	84 41 ff f4 	l.lwz r2,0xfffffff4(r1)
    31d0:	00 00 18 45 	l.j 92e4 <rt_hw_interrupt_enable>
    31d4:	85 c1 ff f8 	l.lwz r14,0xfffffff8(r1)

000031d8 <rt_thread_idle_entry>:
    31d8:	d7 e1 17 f8 	l.sw 0xfffffff8(r1),r2
    31dc:	18 40 00 01 	l.movhi r2,0x1
    31e0:	d7 e1 4f fc 	l.sw 0xfffffffc(r1),r9
    31e4:	a8 42 b0 90 	l.ori r2,r2,0xb090
    31e8:	9c 21 ff f8 	l.addi r1,r1,0xfffffff8
    31ec:	84 62 00 00 	l.lwz r3,0x0(r2)
    31f0:	bc 03 00 00 	l.sfeqi r3,0x0
    31f4:	10 00 00 04 	l.bf 3204 <rt_thread_idle_entry+0x2c>
    31f8:	15 00 00 00 	l.nop 0x0
    31fc:	48 00 18 00 	l.jalr r3
    3200:	15 00 00 00 	l.nop 0x0
    3204:	07 ff ff bf 	l.jal 3100 <_stack+0xfffde810>
    3208:	15 00 00 00 	l.nop 0x0
    320c:	03 ff ff f9 	l.j 31f0 <_stack+0xfffde900>
    3210:	84 62 00 00 	l.lwz r3,0x0(r2)

00003214 <rt_thread_idle_init>:
    3214:	d7 e1 4f fc 	l.sw 0xfffffffc(r1),r9
    3218:	9d 60 00 1f 	l.addi r11,r0,0x1f
    321c:	9c 21 ff f4 	l.addi r1,r1,0xfffffff4
    3220:	18 60 00 01 	l.movhi r3,0x1
    3224:	18 80 00 01 	l.movhi r4,0x1
    3228:	18 a0 00 00 	l.movhi r5,0x0
    322c:	18 e0 00 01 	l.movhi r7,0x1
    3230:	d4 01 58 00 	l.sw 0x0(r1),r11
    3234:	a8 63 a7 e0 	l.ori r3,r3,0xa7e0
    3238:	9d 60 00 20 	l.addi r11,r0,0x20
    323c:	a8 84 9a da 	l.ori r4,r4,0x9ada
    3240:	a8 a5 31 d8 	l.ori r5,r5,0x31d8
    3244:	9c c0 00 00 	l.addi r6,r0,0x0
    3248:	a8 e7 a8 90 	l.ori r7,r7,0xa890
    324c:	9d 00 08 00 	l.addi r8,r0,0x800
    3250:	04 00 14 01 	l.jal 8254 <rt_thread_init>
    3254:	d4 01 58 04 	l.sw 0x4(r1),r11
    3258:	18 60 00 01 	l.movhi r3,0x1
    325c:	9c 21 00 0c 	l.addi r1,r1,0xc
    3260:	85 21 ff fc 	l.lwz r9,0xfffffffc(r1)
    3264:	00 00 15 6d 	l.j 8818 <rt_thread_startup>
    3268:	a8 63 a7 e0 	l.ori r3,r3,0xa7e0

0000326c <rt_sem_init>:
    326c:	a8 e4 00 00 	l.ori r7,r4,0x0
    3270:	d7 e1 4f fc 	l.sw 0xfffffffc(r1),r9
    3274:	d7 e1 17 f0 	l.sw 0xfffffff0(r1),r2
    3278:	d7 e1 77 f4 	l.sw 0xfffffff4(r1),r14
    327c:	d7 e1 87 f8 	l.sw 0xfffffff8(r1),r16
    3280:	9c 80 00 01 	l.addi r4,r0,0x1
    3284:	aa 05 00 00 	l.ori r16,r5,0x0
    3288:	9c 21 ff f0 	l.addi r1,r1,0xfffffff0
    328c:	a8 a7 00 00 	l.ori r5,r7,0x0
    3290:	a8 43 00 00 	l.ori r2,r3,0x0
    3294:	04 00 11 95 	l.jal 78e8 <rt_object_init>
    3298:	a5 c6 00 ff 	l.andi r14,r6,0xff
    329c:	9c 62 00 2c 	l.addi r3,r2,0x2c
    32a0:	d8 02 70 21 	l.sb 0x21(r2),r14
    32a4:	dc 02 80 34 	l.sh 0x34(r2),r16
    32a8:	d4 02 18 30 	l.sw 0x30(r2),r3
    32ac:	d4 02 18 2c 	l.sw 0x2c(r2),r3
    32b0:	9c 21 00 10 	l.addi r1,r1,0x10
    32b4:	9d 60 00 00 	l.addi r11,r0,0x0
    32b8:	85 21 ff fc 	l.lwz r9,0xfffffffc(r1)
    32bc:	84 41 ff f0 	l.lwz r2,0xfffffff0(r1)
    32c0:	85 c1 ff f4 	l.lwz r14,0xfffffff4(r1)
    32c4:	44 00 48 00 	l.jr r9
    32c8:	86 01 ff f8 	l.lwz r16,0xfffffff8(r1)

000032cc <rt_sem_detach>:
    32cc:	d7 e1 17 ec 	l.sw 0xffffffec(r1),r2
    32d0:	d7 e1 97 f8 	l.sw 0xfffffff8(r1),r18
    32d4:	9c 43 00 2c 	l.addi r2,r3,0x2c
    32d8:	d7 e1 4f fc 	l.sw 0xfffffffc(r1),r9
    32dc:	d7 e1 77 f0 	l.sw 0xfffffff0(r1),r14
    32e0:	d7 e1 87 f4 	l.sw 0xfffffff4(r1),r16
    32e4:	aa 43 00 00 	l.ori r18,r3,0x0
    32e8:	84 63 00 2c 	l.lwz r3,0x2c(r3)
    32ec:	e4 02 18 00 	l.sfeq r2,r3
    32f0:	10 00 00 11 	l.bf 3334 <rt_sem_detach+0x68>
    32f4:	9c 21 ff ec 	l.addi r1,r1,0xffffffec
    32f8:	9e 00 ff ff 	l.addi r16,r0,0xffffffff
    32fc:	04 00 17 eb 	l.jal 92a8 <rt_hw_interrupt_disable>
    3300:	15 00 00 00 	l.nop 0x0
    3304:	84 82 00 00 	l.lwz r4,0x0(r2)
    3308:	a9 cb 00 00 	l.ori r14,r11,0x0
    330c:	9c 84 ff d4 	l.addi r4,r4,0xffffffd4
    3310:	a8 64 00 00 	l.ori r3,r4,0x0
    3314:	04 00 15 16 	l.jal 876c <rt_thread_resume>
    3318:	d4 04 80 48 	l.sw 0x48(r4),r16
    331c:	04 00 17 f2 	l.jal 92e4 <rt_hw_interrupt_enable>
    3320:	a8 6e 00 00 	l.ori r3,r14,0x0
    3324:	84 82 00 00 	l.lwz r4,0x0(r2)
    3328:	e4 22 20 00 	l.sfne r2,r4
    332c:	13 ff ff f4 	l.bf 32fc <_stack+0xfffdea0c>
    3330:	15 00 00 00 	l.nop 0x0
    3334:	04 00 11 96 	l.jal 798c <rt_object_detach>
    3338:	a8 72 00 00 	l.ori r3,r18,0x0
    333c:	9c 21 00 14 	l.addi r1,r1,0x14
    3340:	9d 60 00 00 	l.addi r11,r0,0x0
    3344:	85 21 ff fc 	l.lwz r9,0xfffffffc(r1)
    3348:	84 41 ff ec 	l.lwz r2,0xffffffec(r1)
    334c:	85 c1 ff f0 	l.lwz r14,0xfffffff0(r1)
    3350:	86 01 ff f4 	l.lwz r16,0xfffffff4(r1)
    3354:	44 00 48 00 	l.jr r9
    3358:	86 41 ff f8 	l.lwz r18,0xfffffff8(r1)

0000335c <rt_sem_create>:
    335c:	a8 c3 00 00 	l.ori r6,r3,0x0
    3360:	d7 e1 17 f4 	l.sw 0xfffffff4(r1),r2
    3364:	d7 e1 77 f8 	l.sw 0xfffffff8(r1),r14
    3368:	d7 e1 4f fc 	l.sw 0xfffffffc(r1),r9
    336c:	a9 c4 00 00 	l.ori r14,r4,0x0
    3370:	9c 21 ff f4 	l.addi r1,r1,0xfffffff4
    3374:	9c 60 00 01 	l.addi r3,r0,0x1
    3378:	a8 86 00 00 	l.ori r4,r6,0x0
    337c:	04 00 11 9e 	l.jal 79f4 <rt_object_allocate>
    3380:	a4 45 00 ff 	l.andi r2,r5,0xff
    3384:	bc 0b 00 00 	l.sfeqi r11,0x0
    3388:	10 00 00 06 	l.bf 33a0 <rt_sem_create+0x44>
    338c:	9c 6b 00 2c 	l.addi r3,r11,0x2c
    3390:	dc 0b 70 34 	l.sh 0x34(r11),r14
    3394:	d4 0b 18 30 	l.sw 0x30(r11),r3
    3398:	d4 0b 18 2c 	l.sw 0x2c(r11),r3
    339c:	d8 0b 10 21 	l.sb 0x21(r11),r2
    33a0:	9c 21 00 0c 	l.addi r1,r1,0xc
    33a4:	85 21 ff fc 	l.lwz r9,0xfffffffc(r1)
    33a8:	84 41 ff f4 	l.lwz r2,0xfffffff4(r1)
    33ac:	44 00 48 00 	l.jr r9
    33b0:	85 c1 ff f8 	l.lwz r14,0xfffffff8(r1)

000033b4 <rt_sem_delete>:
    33b4:	d7 e1 17 ec 	l.sw 0xffffffec(r1),r2
    33b8:	d7 e1 97 f8 	l.sw 0xfffffff8(r1),r18
    33bc:	9c 43 00 2c 	l.addi r2,r3,0x2c
    33c0:	d7 e1 4f fc 	l.sw 0xfffffffc(r1),r9
    33c4:	d7 e1 77 f0 	l.sw 0xfffffff0(r1),r14
    33c8:	d7 e1 87 f4 	l.sw 0xfffffff4(r1),r16
    33cc:	aa 43 00 00 	l.ori r18,r3,0x0
    33d0:	84 63 00 2c 	l.lwz r3,0x2c(r3)
    33d4:	e4 02 18 00 	l.sfeq r2,r3
    33d8:	10 00 00 11 	l.bf 341c <rt_sem_delete+0x68>
    33dc:	9c 21 ff ec 	l.addi r1,r1,0xffffffec
    33e0:	9e 00 ff ff 	l.addi r16,r0,0xffffffff
    33e4:	04 00 17 b1 	l.jal 92a8 <rt_hw_interrupt_disable>
    33e8:	15 00 00 00 	l.nop 0x0
    33ec:	84 82 00 00 	l.lwz r4,0x0(r2)
    33f0:	a9 cb 00 00 	l.ori r14,r11,0x0
    33f4:	9c 84 ff d4 	l.addi r4,r4,0xffffffd4
    33f8:	a8 64 00 00 	l.ori r3,r4,0x0
    33fc:	04 00 14 dc 	l.jal 876c <rt_thread_resume>
    3400:	d4 04 80 48 	l.sw 0x48(r4),r16
    3404:	04 00 17 b8 	l.jal 92e4 <rt_hw_interrupt_enable>
    3408:	a8 6e 00 00 	l.ori r3,r14,0x0
    340c:	84 82 00 00 	l.lwz r4,0x0(r2)
    3410:	e4 22 20 00 	l.sfne r2,r4
    3414:	13 ff ff f4 	l.bf 33e4 <_stack+0xfffdeaf4>
    3418:	15 00 00 00 	l.nop 0x0
    341c:	04 00 11 b0 	l.jal 7adc <rt_object_delete>
    3420:	a8 72 00 00 	l.ori r3,r18,0x0
    3424:	9c 21 00 14 	l.addi r1,r1,0x14
    3428:	9d 60 00 00 	l.addi r11,r0,0x0
    342c:	85 21 ff fc 	l.lwz r9,0xfffffffc(r1)
    3430:	84 41 ff ec 	l.lwz r2,0xffffffec(r1)
    3434:	85 c1 ff f0 	l.lwz r14,0xfffffff0(r1)
    3438:	86 01 ff f4 	l.lwz r16,0xfffffff4(r1)
    343c:	44 00 48 00 	l.jr r9
    3440:	86 41 ff f8 	l.lwz r18,0xfffffff8(r1)

00003444 <rt_sem_take>:
    3444:	d7 e1 17 e8 	l.sw 0xffffffe8(r1),r2
    3448:	18 40 00 01 	l.movhi r2,0x1
    344c:	d7 e1 4f fc 	l.sw 0xfffffffc(r1),r9
    3450:	a8 42 d9 5c 	l.ori r2,r2,0xd95c
    3454:	d7 e1 77 ec 	l.sw 0xffffffec(r1),r14
    3458:	d7 e1 87 f0 	l.sw 0xfffffff0(r1),r16
    345c:	d7 e1 97 f4 	l.sw 0xfffffff4(r1),r18
    3460:	d7 e1 a7 f8 	l.sw 0xfffffff8(r1),r20
    3464:	9c 21 ff e4 	l.addi r1,r1,0xffffffe4
    3468:	d4 01 20 00 	l.sw 0x0(r1),r4
    346c:	84 82 00 00 	l.lwz r4,0x0(r2)
    3470:	bc 04 00 00 	l.sfeqi r4,0x0
    3474:	10 00 00 04 	l.bf 3484 <rt_sem_take+0x40>
    3478:	a8 43 00 00 	l.ori r2,r3,0x0
    347c:	48 00 20 00 	l.jalr r4
    3480:	15 00 00 00 	l.nop 0x0
    3484:	04 00 17 89 	l.jal 92a8 <rt_hw_interrupt_disable>
    3488:	15 00 00 00 	l.nop 0x0
    348c:	96 42 00 34 	l.lhz r18,0x34(r2)
    3490:	bc 12 00 00 	l.sfeqi r18,0x0
    3494:	0c 00 00 4f 	l.bnf 35d0 <rt_sem_take+0x18c>
    3498:	aa 8b 00 00 	l.ori r20,r11,0x0
    349c:	84 61 00 00 	l.lwz r3,0x0(r1)
    34a0:	bc 23 00 00 	l.sfnei r3,0x0
    34a4:	0c 00 00 59 	l.bnf 3608 <rt_sem_take+0x1c4>
    34a8:	15 00 00 00 	l.nop 0x0
    34ac:	04 00 13 b0 	l.jal 836c <rt_thread_self>
    34b0:	9e 02 00 2c 	l.addi r16,r2,0x2c
    34b4:	d4 0b 90 48 	l.sw 0x48(r11),r18
    34b8:	a8 6b 00 00 	l.ori r3,r11,0x0
    34bc:	8e 42 00 21 	l.lbz r18,0x21(r2)
    34c0:	04 00 14 64 	l.jal 8650 <rt_thread_suspend>
    34c4:	a9 cb 00 00 	l.ori r14,r11,0x0
    34c8:	bc 12 00 00 	l.sfeqi r18,0x0
    34cc:	10 00 00 3a 	l.bf 35b4 <rt_sem_take+0x170>
    34d0:	bc 12 00 01 	l.sfeqi r18,0x1
    34d4:	10 00 00 25 	l.bf 3568 <rt_sem_take+0x124>
    34d8:	15 00 00 00 	l.nop 0x0
    34dc:	84 61 00 00 	l.lwz r3,0x0(r1)
    34e0:	bd a3 00 00 	l.sflesi r3,0x0
    34e4:	10 00 00 08 	l.bf 3504 <rt_sem_take+0xc0>
    34e8:	9c 80 00 00 	l.addi r4,r0,0x0
    34ec:	9e 0e 00 64 	l.addi r16,r14,0x64
    34f0:	a8 70 00 00 	l.ori r3,r16,0x0
    34f4:	04 00 16 48 	l.jal 8e14 <rt_timer_control>
    34f8:	a8 a1 00 00 	l.ori r5,r1,0x0
    34fc:	04 00 15 d8 	l.jal 8c5c <rt_timer_start>
    3500:	a8 70 00 00 	l.ori r3,r16,0x0
    3504:	04 00 17 78 	l.jal 92e4 <rt_hw_interrupt_enable>
    3508:	a8 74 00 00 	l.ori r3,r20,0x0
    350c:	04 00 12 42 	l.jal 7e14 <rt_schedule>
    3510:	15 00 00 00 	l.nop 0x0
    3514:	85 6e 00 48 	l.lwz r11,0x48(r14)
    3518:	bc 2b 00 00 	l.sfnei r11,0x0
    351c:	10 00 00 0b 	l.bf 3548 <rt_sem_take+0x104>
    3520:	15 00 00 00 	l.nop 0x0
    3524:	18 60 00 01 	l.movhi r3,0x1
    3528:	a8 63 d9 58 	l.ori r3,r3,0xd958
    352c:	85 63 00 00 	l.lwz r11,0x0(r3)
    3530:	bc 0b 00 00 	l.sfeqi r11,0x0
    3534:	10 00 00 05 	l.bf 3548 <rt_sem_take+0x104>
    3538:	15 00 00 00 	l.nop 0x0
    353c:	48 00 58 00 	l.jalr r11
    3540:	a8 62 00 00 	l.ori r3,r2,0x0
    3544:	9d 60 00 00 	l.addi r11,r0,0x0
    3548:	9c 21 00 1c 	l.addi r1,r1,0x1c
    354c:	85 21 ff fc 	l.lwz r9,0xfffffffc(r1)
    3550:	84 41 ff e8 	l.lwz r2,0xffffffe8(r1)
    3554:	85 c1 ff ec 	l.lwz r14,0xffffffec(r1)
    3558:	86 01 ff f0 	l.lwz r16,0xfffffff0(r1)
    355c:	86 41 ff f4 	l.lwz r18,0xfffffff4(r1)
    3560:	44 00 48 00 	l.jr r9
    3564:	86 81 ff f8 	l.lwz r20,0xfffffff8(r1)
    3568:	84 82 00 2c 	l.lwz r4,0x2c(r2)
    356c:	e4 10 20 00 	l.sfeq r16,r4
    3570:	10 00 00 11 	l.bf 35b4 <rt_sem_take+0x170>
    3574:	9c a4 ff d4 	l.addi r5,r4,0xffffffd4
    3578:	8c 6e 00 4d 	l.lbz r3,0x4d(r14)
    357c:	8c c5 00 4d 	l.lbz r6,0x4d(r5)
    3580:	e4 46 18 00 	l.sfgtu r6,r3
    3584:	0c 00 00 08 	l.bnf 35a4 <rt_sem_take+0x160>
    3588:	15 00 00 00 	l.nop 0x0
    358c:	00 00 00 18 	l.j 35ec <rt_sem_take+0x1a8>
    3590:	84 c5 00 30 	l.lwz r6,0x30(r5)
    3594:	8c c5 00 4d 	l.lbz r6,0x4d(r5)
    3598:	e4 a6 18 00 	l.sfleu r6,r3
    359c:	0c 00 00 13 	l.bnf 35e8 <rt_sem_take+0x1a4>
    35a0:	15 00 00 00 	l.nop 0x0
    35a4:	84 84 00 00 	l.lwz r4,0x0(r4)
    35a8:	e4 30 20 00 	l.sfne r16,r4
    35ac:	13 ff ff fa 	l.bf 3594 <_stack+0xfffdeca4>
    35b0:	9c a4 ff d4 	l.addi r5,r4,0xffffffd4
    35b4:	84 82 00 30 	l.lwz r4,0x30(r2)
    35b8:	9c 6e 00 2c 	l.addi r3,r14,0x2c
    35bc:	d4 0e 20 30 	l.sw 0x30(r14),r4
    35c0:	d4 04 18 00 	l.sw 0x0(r4),r3
    35c4:	d4 02 18 30 	l.sw 0x30(r2),r3
    35c8:	03 ff ff c5 	l.j 34dc <_stack+0xfffdebec>
    35cc:	d4 0e 80 2c 	l.sw 0x2c(r14),r16
    35d0:	9e 52 ff ff 	l.addi r18,r18,0xffffffff
    35d4:	a8 6b 00 00 	l.ori r3,r11,0x0
    35d8:	04 00 17 43 	l.jal 92e4 <rt_hw_interrupt_enable>
    35dc:	dc 02 90 34 	l.sh 0x34(r2),r18
    35e0:	03 ff ff d2 	l.j 3528 <_stack+0xfffdec38>
    35e4:	18 60 00 01 	l.movhi r3,0x1
    35e8:	84 c5 00 30 	l.lwz r6,0x30(r5)
    35ec:	9c 6e 00 2c 	l.addi r3,r14,0x2c
    35f0:	9c 85 00 2c 	l.addi r4,r5,0x2c
    35f4:	d4 06 18 00 	l.sw 0x0(r6),r3
    35f8:	d4 0e 30 30 	l.sw 0x30(r14),r6
    35fc:	d4 05 18 30 	l.sw 0x30(r5),r3
    3600:	03 ff ff b7 	l.j 34dc <_stack+0xfffdebec>
    3604:	d4 0e 20 2c 	l.sw 0x2c(r14),r4
    3608:	04 00 17 37 	l.jal 92e4 <rt_hw_interrupt_enable>
    360c:	a8 6b 00 00 	l.ori r3,r11,0x0
    3610:	03 ff ff ce 	l.j 3548 <_stack+0xfffdec58>
    3614:	9d 60 ff fe 	l.addi r11,r0,0xfffffffe

00003618 <rt_sem_trytake>:
    3618:	d7 e1 4f fc 	l.sw 0xfffffffc(r1),r9
    361c:	9c 21 ff fc 	l.addi r1,r1,0xfffffffc
    3620:	9c 21 00 04 	l.addi r1,r1,0x4
    3624:	85 21 ff fc 	l.lwz r9,0xfffffffc(r1)
    3628:	03 ff ff 87 	l.j 3444 <_stack+0xfffdeb54>
    362c:	9c 80 00 00 	l.addi r4,r0,0x0

00003630 <rt_sem_release>:
    3630:	18 80 00 01 	l.movhi r4,0x1
    3634:	d7 e1 17 f4 	l.sw 0xfffffff4(r1),r2
    3638:	a8 84 d9 54 	l.ori r4,r4,0xd954
    363c:	d7 e1 4f fc 	l.sw 0xfffffffc(r1),r9
    3640:	d7 e1 77 f8 	l.sw 0xfffffff8(r1),r14
    3644:	84 84 00 00 	l.lwz r4,0x0(r4)
    3648:	9c 21 ff f4 	l.addi r1,r1,0xfffffff4
    364c:	bc 04 00 00 	l.sfeqi r4,0x0
    3650:	10 00 00 04 	l.bf 3660 <rt_sem_release+0x30>
    3654:	a8 43 00 00 	l.ori r2,r3,0x0
    3658:	48 00 20 00 	l.jalr r4
    365c:	15 00 00 00 	l.nop 0x0
    3660:	04 00 17 12 	l.jal 92a8 <rt_hw_interrupt_disable>
    3664:	15 00 00 00 	l.nop 0x0
    3668:	84 82 00 2c 	l.lwz r4,0x2c(r2)
    366c:	9c 62 00 2c 	l.addi r3,r2,0x2c
    3670:	e4 04 18 00 	l.sfeq r4,r3
    3674:	10 00 00 0e 	l.bf 36ac <rt_sem_release+0x7c>
    3678:	a9 cb 00 00 	l.ori r14,r11,0x0
    367c:	04 00 14 3c 	l.jal 876c <rt_thread_resume>
    3680:	9c 64 ff d4 	l.addi r3,r4,0xffffffd4
    3684:	04 00 17 18 	l.jal 92e4 <rt_hw_interrupt_enable>
    3688:	a8 6e 00 00 	l.ori r3,r14,0x0
    368c:	04 00 11 e2 	l.jal 7e14 <rt_schedule>
    3690:	15 00 00 00 	l.nop 0x0
    3694:	9c 21 00 0c 	l.addi r1,r1,0xc
    3698:	9d 60 00 00 	l.addi r11,r0,0x0
    369c:	85 21 ff fc 	l.lwz r9,0xfffffffc(r1)
    36a0:	84 41 ff f4 	l.lwz r2,0xfffffff4(r1)
    36a4:	44 00 48 00 	l.jr r9
    36a8:	85 c1 ff f8 	l.lwz r14,0xfffffff8(r1)
    36ac:	94 82 00 34 	l.lhz r4,0x34(r2)
    36b0:	9c 84 00 01 	l.addi r4,r4,0x1
    36b4:	a8 6b 00 00 	l.ori r3,r11,0x0
    36b8:	04 00 17 0b 	l.jal 92e4 <rt_hw_interrupt_enable>
    36bc:	dc 02 20 34 	l.sh 0x34(r2),r4
    36c0:	9c 21 00 0c 	l.addi r1,r1,0xc
    36c4:	9d 60 00 00 	l.addi r11,r0,0x0
    36c8:	85 21 ff fc 	l.lwz r9,0xfffffffc(r1)
    36cc:	84 41 ff f4 	l.lwz r2,0xfffffff4(r1)
    36d0:	44 00 48 00 	l.jr r9
    36d4:	85 c1 ff f8 	l.lwz r14,0xfffffff8(r1)

000036d8 <rt_sem_control>:
    36d8:	d7 e1 77 e8 	l.sw 0xffffffe8(r1),r14
    36dc:	d7 e1 97 f0 	l.sw 0xfffffff0(r1),r18
    36e0:	d7 e1 a7 f4 	l.sw 0xfffffff4(r1),r20
    36e4:	d7 e1 4f fc 	l.sw 0xfffffffc(r1),r9
    36e8:	d7 e1 17 e4 	l.sw 0xffffffe4(r1),r2
    36ec:	d7 e1 87 ec 	l.sw 0xffffffec(r1),r16
    36f0:	d7 e1 b7 f8 	l.sw 0xfffffff8(r1),r22
    36f4:	a4 84 00 ff 	l.andi r4,r4,0xff
    36f8:	9c 21 ff e4 	l.addi r1,r1,0xffffffe4
    36fc:	aa 43 00 00 	l.ori r18,r3,0x0
    3700:	aa 85 00 00 	l.ori r20,r5,0x0
    3704:	bc 24 00 01 	l.sfnei r4,0x1
    3708:	0c 00 00 0c 	l.bnf 3738 <rt_sem_control+0x60>
    370c:	9d c0 ff ff 	l.addi r14,r0,0xffffffff
    3710:	9c 21 00 1c 	l.addi r1,r1,0x1c
    3714:	a9 6e 00 00 	l.ori r11,r14,0x0
    3718:	85 21 ff fc 	l.lwz r9,0xfffffffc(r1)
    371c:	84 41 ff e4 	l.lwz r2,0xffffffe4(r1)
    3720:	85 c1 ff e8 	l.lwz r14,0xffffffe8(r1)
    3724:	86 01 ff ec 	l.lwz r16,0xffffffec(r1)
    3728:	86 41 ff f0 	l.lwz r18,0xfffffff0(r1)
    372c:	86 81 ff f4 	l.lwz r20,0xfffffff4(r1)
    3730:	44 00 48 00 	l.jr r9
    3734:	86 c1 ff f8 	l.lwz r22,0xfffffff8(r1)
    3738:	04 00 16 dc 	l.jal 92a8 <rt_hw_interrupt_disable>
    373c:	9c 52 00 2c 	l.addi r2,r18,0x2c
    3740:	84 72 00 2c 	l.lwz r3,0x2c(r18)
    3744:	e4 02 18 00 	l.sfeq r2,r3
    3748:	10 00 00 10 	l.bf 3788 <rt_sem_control+0xb0>
    374c:	aa cb 00 00 	l.ori r22,r11,0x0
    3750:	04 00 16 d6 	l.jal 92a8 <rt_hw_interrupt_disable>
    3754:	15 00 00 00 	l.nop 0x0
    3758:	84 82 00 00 	l.lwz r4,0x0(r2)
    375c:	aa 0b 00 00 	l.ori r16,r11,0x0
    3760:	9c 84 ff d4 	l.addi r4,r4,0xffffffd4
    3764:	a8 64 00 00 	l.ori r3,r4,0x0
    3768:	04 00 14 01 	l.jal 876c <rt_thread_resume>
    376c:	d4 04 70 48 	l.sw 0x48(r4),r14
    3770:	04 00 16 dd 	l.jal 92e4 <rt_hw_interrupt_enable>
    3774:	a8 70 00 00 	l.ori r3,r16,0x0
    3778:	84 82 00 00 	l.lwz r4,0x0(r2)
    377c:	e4 22 20 00 	l.sfne r2,r4
    3780:	13 ff ff f4 	l.bf 3750 <_stack+0xfffdee60>
    3784:	15 00 00 00 	l.nop 0x0
    3788:	a8 76 00 00 	l.ori r3,r22,0x0
    378c:	dc 12 a0 34 	l.sh 0x34(r18),r20
    3790:	04 00 16 d5 	l.jal 92e4 <rt_hw_interrupt_enable>
    3794:	9d c0 00 00 	l.addi r14,r0,0x0
    3798:	04 00 11 9f 	l.jal 7e14 <rt_schedule>
    379c:	15 00 00 00 	l.nop 0x0
    37a0:	03 ff ff dd 	l.j 3714 <_stack+0xfffdee24>
    37a4:	9c 21 00 1c 	l.addi r1,r1,0x1c

000037a8 <rt_mutex_init>:
    37a8:	a8 c4 00 00 	l.ori r6,r4,0x0
    37ac:	d7 e1 4f fc 	l.sw 0xfffffffc(r1),r9
    37b0:	d7 e1 17 f4 	l.sw 0xfffffff4(r1),r2
    37b4:	d7 e1 77 f8 	l.sw 0xfffffff8(r1),r14
    37b8:	9c 80 00 02 	l.addi r4,r0,0x2
    37bc:	a5 c5 00 ff 	l.andi r14,r5,0xff
    37c0:	9c 21 ff f4 	l.addi r1,r1,0xfffffff4
    37c4:	a8 a6 00 00 	l.ori r5,r6,0x0
    37c8:	04 00 10 48 	l.jal 78e8 <rt_object_init>
    37cc:	a8 43 00 00 	l.ori r2,r3,0x0
    37d0:	9c 62 00 2c 	l.addi r3,r2,0x2c
    37d4:	9d 60 00 00 	l.addi r11,r0,0x0
    37d8:	d4 02 18 30 	l.sw 0x30(r2),r3
    37dc:	d4 02 18 2c 	l.sw 0x2c(r2),r3
    37e0:	9c 60 00 01 	l.addi r3,r0,0x1
    37e4:	d8 02 58 37 	l.sb 0x37(r2),r11
    37e8:	dc 02 18 34 	l.sh 0x34(r2),r3
    37ec:	9c 60 ff ff 	l.addi r3,r0,0xffffffff
    37f0:	d8 02 70 21 	l.sb 0x21(r2),r14
    37f4:	d8 02 18 36 	l.sb 0x36(r2),r3
    37f8:	d4 02 58 38 	l.sw 0x38(r2),r11
    37fc:	9c 21 00 0c 	l.addi r1,r1,0xc
    3800:	85 21 ff fc 	l.lwz r9,0xfffffffc(r1)
    3804:	84 41 ff f4 	l.lwz r2,0xfffffff4(r1)
    3808:	44 00 48 00 	l.jr r9
    380c:	85 c1 ff f8 	l.lwz r14,0xfffffff8(r1)

00003810 <rt_mutex_detach>:
    3810:	d7 e1 17 ec 	l.sw 0xffffffec(r1),r2
    3814:	d7 e1 97 f8 	l.sw 0xfffffff8(r1),r18
    3818:	9c 43 00 2c 	l.addi r2,r3,0x2c
    381c:	d7 e1 4f fc 	l.sw 0xfffffffc(r1),r9
    3820:	d7 e1 77 f0 	l.sw 0xfffffff0(r1),r14
    3824:	d7 e1 87 f4 	l.sw 0xfffffff4(r1),r16
    3828:	aa 43 00 00 	l.ori r18,r3,0x0
    382c:	84 63 00 2c 	l.lwz r3,0x2c(r3)
    3830:	e4 02 18 00 	l.sfeq r2,r3
    3834:	10 00 00 11 	l.bf 3878 <rt_mutex_detach+0x68>
    3838:	9c 21 ff ec 	l.addi r1,r1,0xffffffec
    383c:	9e 00 ff ff 	l.addi r16,r0,0xffffffff
    3840:	04 00 16 9a 	l.jal 92a8 <rt_hw_interrupt_disable>
    3844:	15 00 00 00 	l.nop 0x0
    3848:	84 82 00 00 	l.lwz r4,0x0(r2)
    384c:	a9 cb 00 00 	l.ori r14,r11,0x0
    3850:	9c 84 ff d4 	l.addi r4,r4,0xffffffd4
    3854:	a8 64 00 00 	l.ori r3,r4,0x0
    3858:	04 00 13 c5 	l.jal 876c <rt_thread_resume>
    385c:	d4 04 80 48 	l.sw 0x48(r4),r16
    3860:	04 00 16 a1 	l.jal 92e4 <rt_hw_interrupt_enable>
    3864:	a8 6e 00 00 	l.ori r3,r14,0x0
    3868:	84 82 00 00 	l.lwz r4,0x0(r2)
    386c:	e4 22 20 00 	l.sfne r2,r4
    3870:	13 ff ff f4 	l.bf 3840 <_stack+0xfffdef50>
    3874:	15 00 00 00 	l.nop 0x0
    3878:	04 00 10 45 	l.jal 798c <rt_object_detach>
    387c:	a8 72 00 00 	l.ori r3,r18,0x0
    3880:	9c 21 00 14 	l.addi r1,r1,0x14
    3884:	9d 60 00 00 	l.addi r11,r0,0x0
    3888:	85 21 ff fc 	l.lwz r9,0xfffffffc(r1)
    388c:	84 41 ff ec 	l.lwz r2,0xffffffec(r1)
    3890:	85 c1 ff f0 	l.lwz r14,0xfffffff0(r1)
    3894:	86 01 ff f4 	l.lwz r16,0xfffffff4(r1)
    3898:	44 00 48 00 	l.jr r9
    389c:	86 41 ff f8 	l.lwz r18,0xfffffff8(r1)

000038a0 <rt_mutex_create>:
    38a0:	a8 a3 00 00 	l.ori r5,r3,0x0
    38a4:	d7 e1 17 f8 	l.sw 0xfffffff8(r1),r2
    38a8:	d7 e1 4f fc 	l.sw 0xfffffffc(r1),r9
    38ac:	a4 44 00 ff 	l.andi r2,r4,0xff
    38b0:	9c 21 ff f8 	l.addi r1,r1,0xfffffff8
    38b4:	9c 60 00 02 	l.addi r3,r0,0x2
    38b8:	04 00 10 4f 	l.jal 79f4 <rt_object_allocate>
    38bc:	a8 85 00 00 	l.ori r4,r5,0x0
    38c0:	bc 0b 00 00 	l.sfeqi r11,0x0
    38c4:	10 00 00 0c 	l.bf 38f4 <rt_mutex_create+0x54>
    38c8:	9c 6b 00 2c 	l.addi r3,r11,0x2c
    38cc:	9c 80 00 01 	l.addi r4,r0,0x1
    38d0:	d4 0b 18 30 	l.sw 0x30(r11),r3
    38d4:	dc 0b 20 34 	l.sh 0x34(r11),r4
    38d8:	d4 0b 18 2c 	l.sw 0x2c(r11),r3
    38dc:	9c 80 ff ff 	l.addi r4,r0,0xffffffff
    38e0:	9c 60 00 00 	l.addi r3,r0,0x0
    38e4:	d8 0b 20 36 	l.sb 0x36(r11),r4
    38e8:	d4 0b 18 38 	l.sw 0x38(r11),r3
    38ec:	d8 0b 18 37 	l.sb 0x37(r11),r3
    38f0:	d8 0b 10 21 	l.sb 0x21(r11),r2
    38f4:	9c 21 00 08 	l.addi r1,r1,0x8
    38f8:	85 21 ff fc 	l.lwz r9,0xfffffffc(r1)
    38fc:	44 00 48 00 	l.jr r9
    3900:	84 41 ff f8 	l.lwz r2,0xfffffff8(r1)

00003904 <rt_mutex_delete>:
    3904:	d7 e1 17 ec 	l.sw 0xffffffec(r1),r2
    3908:	d7 e1 97 f8 	l.sw 0xfffffff8(r1),r18
    390c:	9c 43 00 2c 	l.addi r2,r3,0x2c
    3910:	d7 e1 4f fc 	l.sw 0xfffffffc(r1),r9
    3914:	d7 e1 77 f0 	l.sw 0xfffffff0(r1),r14
    3918:	d7 e1 87 f4 	l.sw 0xfffffff4(r1),r16
    391c:	aa 43 00 00 	l.ori r18,r3,0x0
    3920:	84 63 00 2c 	l.lwz r3,0x2c(r3)
    3924:	e4 02 18 00 	l.sfeq r2,r3
    3928:	10 00 00 11 	l.bf 396c <rt_mutex_delete+0x68>
    392c:	9c 21 ff ec 	l.addi r1,r1,0xffffffec
    3930:	9e 00 ff ff 	l.addi r16,r0,0xffffffff
    3934:	04 00 16 5d 	l.jal 92a8 <rt_hw_interrupt_disable>
    3938:	15 00 00 00 	l.nop 0x0
    393c:	84 82 00 00 	l.lwz r4,0x0(r2)
    3940:	a9 cb 00 00 	l.ori r14,r11,0x0
    3944:	9c 84 ff d4 	l.addi r4,r4,0xffffffd4
    3948:	a8 64 00 00 	l.ori r3,r4,0x0
    394c:	04 00 13 88 	l.jal 876c <rt_thread_resume>
    3950:	d4 04 80 48 	l.sw 0x48(r4),r16
    3954:	04 00 16 64 	l.jal 92e4 <rt_hw_interrupt_enable>
    3958:	a8 6e 00 00 	l.ori r3,r14,0x0
    395c:	84 82 00 00 	l.lwz r4,0x0(r2)
    3960:	e4 22 20 00 	l.sfne r2,r4
    3964:	13 ff ff f4 	l.bf 3934 <_stack+0xfffdf044>
    3968:	15 00 00 00 	l.nop 0x0
    396c:	04 00 10 5c 	l.jal 7adc <rt_object_delete>
    3970:	a8 72 00 00 	l.ori r3,r18,0x0
    3974:	9c 21 00 14 	l.addi r1,r1,0x14
    3978:	9d 60 00 00 	l.addi r11,r0,0x0
    397c:	85 21 ff fc 	l.lwz r9,0xfffffffc(r1)
    3980:	84 41 ff ec 	l.lwz r2,0xffffffec(r1)
    3984:	85 c1 ff f0 	l.lwz r14,0xfffffff0(r1)
    3988:	86 01 ff f4 	l.lwz r16,0xfffffff4(r1)
    398c:	44 00 48 00 	l.jr r9
    3990:	86 41 ff f8 	l.lwz r18,0xfffffff8(r1)

00003994 <rt_mutex_take>:
    3994:	d7 e1 4f fc 	l.sw 0xfffffffc(r1),r9
    3998:	d7 e1 17 e8 	l.sw 0xffffffe8(r1),r2
    399c:	d7 e1 77 ec 	l.sw 0xffffffec(r1),r14
    39a0:	d7 e1 87 f0 	l.sw 0xfffffff0(r1),r16
    39a4:	d7 e1 97 f4 	l.sw 0xfffffff4(r1),r18
    39a8:	d7 e1 a7 f8 	l.sw 0xfffffff8(r1),r20
    39ac:	9c 21 ff e4 	l.addi r1,r1,0xffffffe4
    39b0:	a8 43 00 00 	l.ori r2,r3,0x0
    39b4:	04 00 16 3d 	l.jal 92a8 <rt_hw_interrupt_disable>
    39b8:	d4 01 20 00 	l.sw 0x0(r1),r4
    39bc:	04 00 12 6c 	l.jal 836c <rt_thread_self>
    39c0:	aa 0b 00 00 	l.ori r16,r11,0x0
    39c4:	18 60 00 01 	l.movhi r3,0x1
    39c8:	a8 63 d9 5c 	l.ori r3,r3,0xd95c
    39cc:	84 83 00 00 	l.lwz r4,0x0(r3)
    39d0:	bc 04 00 00 	l.sfeqi r4,0x0
    39d4:	10 00 00 04 	l.bf 39e4 <rt_mutex_take+0x50>
    39d8:	a9 cb 00 00 	l.ori r14,r11,0x0
    39dc:	48 00 20 00 	l.jalr r4
    39e0:	a8 62 00 00 	l.ori r3,r2,0x0
    39e4:	9c 60 00 00 	l.addi r3,r0,0x0
    39e8:	84 82 00 38 	l.lwz r4,0x38(r2)
    39ec:	e4 24 70 00 	l.sfne r4,r14
    39f0:	0c 00 00 67 	l.bnf 3b8c <rt_mutex_take+0x1f8>
    39f4:	d4 0e 18 48 	l.sw 0x48(r14),r3
    39f8:	94 62 00 34 	l.lhz r3,0x34(r2)
    39fc:	bc 03 00 00 	l.sfeqi r3,0x0
    3a00:	10 00 00 1c 	l.bf 3a70 <rt_mutex_take+0xdc>
    3a04:	9c 63 ff ff 	l.addi r3,r3,0xffffffff
    3a08:	8c 82 00 37 	l.lbz r4,0x37(r2)
    3a0c:	dc 02 18 34 	l.sh 0x34(r2),r3
    3a10:	d4 02 70 38 	l.sw 0x38(r2),r14
    3a14:	9c 64 00 01 	l.addi r3,r4,0x1
    3a18:	8d ce 00 4d 	l.lbz r14,0x4d(r14)
    3a1c:	d8 02 18 37 	l.sb 0x37(r2),r3
    3a20:	d8 02 70 36 	l.sb 0x36(r2),r14
    3a24:	04 00 16 30 	l.jal 92e4 <rt_hw_interrupt_enable>
    3a28:	a8 70 00 00 	l.ori r3,r16,0x0
    3a2c:	18 60 00 01 	l.movhi r3,0x1
    3a30:	a8 63 d9 58 	l.ori r3,r3,0xd958
    3a34:	85 63 00 00 	l.lwz r11,0x0(r3)
    3a38:	bc 0b 00 00 	l.sfeqi r11,0x0
    3a3c:	10 00 00 05 	l.bf 3a50 <rt_mutex_take+0xbc>
    3a40:	15 00 00 00 	l.nop 0x0
    3a44:	48 00 58 00 	l.jalr r11
    3a48:	a8 62 00 00 	l.ori r3,r2,0x0
    3a4c:	9d 60 00 00 	l.addi r11,r0,0x0
    3a50:	9c 21 00 1c 	l.addi r1,r1,0x1c
    3a54:	85 21 ff fc 	l.lwz r9,0xfffffffc(r1)
    3a58:	84 41 ff e8 	l.lwz r2,0xffffffe8(r1)
    3a5c:	85 c1 ff ec 	l.lwz r14,0xffffffec(r1)
    3a60:	86 01 ff f0 	l.lwz r16,0xfffffff0(r1)
    3a64:	86 41 ff f4 	l.lwz r18,0xfffffff4(r1)
    3a68:	44 00 48 00 	l.jr r9
    3a6c:	86 81 ff f8 	l.lwz r20,0xfffffff8(r1)
    3a70:	84 61 00 00 	l.lwz r3,0x0(r1)
    3a74:	bc 23 00 00 	l.sfnei r3,0x0
    3a78:	0c 00 00 4e 	l.bnf 3bb0 <rt_mutex_take+0x21c>
    3a7c:	a8 70 00 00 	l.ori r3,r16,0x0
    3a80:	8c ae 00 4d 	l.lbz r5,0x4d(r14)
    3a84:	8c 64 00 4d 	l.lbz r3,0x4d(r4)
    3a88:	e4 65 18 00 	l.sfgeu r5,r3
    3a8c:	0c 00 00 44 	l.bnf 3b9c <rt_mutex_take+0x208>
    3a90:	a8 64 00 00 	l.ori r3,r4,0x0
    3a94:	8e 82 00 21 	l.lbz r20,0x21(r2)
    3a98:	a8 6e 00 00 	l.ori r3,r14,0x0
    3a9c:	04 00 12 ed 	l.jal 8650 <rt_thread_suspend>
    3aa0:	9e 42 00 2c 	l.addi r18,r2,0x2c
    3aa4:	bc 14 00 00 	l.sfeqi r20,0x0
    3aa8:	0c 00 00 1e 	l.bnf 3b20 <rt_mutex_take+0x18c>
    3aac:	bc 14 00 01 	l.sfeqi r20,0x1
    3ab0:	84 82 00 30 	l.lwz r4,0x30(r2)
    3ab4:	9c 6e 00 2c 	l.addi r3,r14,0x2c
    3ab8:	d4 0e 20 30 	l.sw 0x30(r14),r4
    3abc:	d4 04 18 00 	l.sw 0x0(r4),r3
    3ac0:	d4 02 18 30 	l.sw 0x30(r2),r3
    3ac4:	d4 0e 90 2c 	l.sw 0x2c(r14),r18
    3ac8:	84 61 00 00 	l.lwz r3,0x0(r1)
    3acc:	bd a3 00 00 	l.sflesi r3,0x0
    3ad0:	10 00 00 08 	l.bf 3af0 <rt_mutex_take+0x15c>
    3ad4:	9c 80 00 00 	l.addi r4,r0,0x0
    3ad8:	9e 4e 00 64 	l.addi r18,r14,0x64
    3adc:	a8 72 00 00 	l.ori r3,r18,0x0
    3ae0:	04 00 14 cd 	l.jal 8e14 <rt_timer_control>
    3ae4:	a8 a1 00 00 	l.ori r5,r1,0x0
    3ae8:	04 00 14 5d 	l.jal 8c5c <rt_timer_start>
    3aec:	a8 72 00 00 	l.ori r3,r18,0x0
    3af0:	04 00 15 fd 	l.jal 92e4 <rt_hw_interrupt_enable>
    3af4:	a8 70 00 00 	l.ori r3,r16,0x0
    3af8:	04 00 10 c7 	l.jal 7e14 <rt_schedule>
    3afc:	15 00 00 00 	l.nop 0x0
    3b00:	85 6e 00 48 	l.lwz r11,0x48(r14)
    3b04:	bc 2b 00 00 	l.sfnei r11,0x0
    3b08:	13 ff ff d2 	l.bf 3a50 <_stack+0xfffdf160>
    3b0c:	15 00 00 00 	l.nop 0x0
    3b10:	04 00 15 e6 	l.jal 92a8 <rt_hw_interrupt_disable>
    3b14:	15 00 00 00 	l.nop 0x0
    3b18:	03 ff ff c3 	l.j 3a24 <_stack+0xfffdf134>
    3b1c:	aa 0b 00 00 	l.ori r16,r11,0x0
    3b20:	0f ff ff eb 	l.bnf 3acc <_stack+0xfffdf1dc>
    3b24:	84 61 00 00 	l.lwz r3,0x0(r1)
    3b28:	84 82 00 2c 	l.lwz r4,0x2c(r2)
    3b2c:	e4 12 20 00 	l.sfeq r18,r4
    3b30:	13 ff ff e0 	l.bf 3ab0 <_stack+0xfffdf1c0>
    3b34:	9c a4 ff d4 	l.addi r5,r4,0xffffffd4
    3b38:	8c ce 00 4d 	l.lbz r6,0x4d(r14)
    3b3c:	8c 65 00 4d 	l.lbz r3,0x4d(r5)
    3b40:	e4 43 30 00 	l.sfgtu r3,r6
    3b44:	10 00 00 0a 	l.bf 3b6c <rt_mutex_take+0x1d8>
    3b48:	15 00 00 00 	l.nop 0x0
    3b4c:	84 84 00 00 	l.lwz r4,0x0(r4)
    3b50:	e4 32 20 00 	l.sfne r18,r4
    3b54:	0f ff ff d7 	l.bnf 3ab0 <_stack+0xfffdf1c0>
    3b58:	9c a4 ff d4 	l.addi r5,r4,0xffffffd4
    3b5c:	8c 65 00 4d 	l.lbz r3,0x4d(r5)
    3b60:	e4 a3 30 00 	l.sfleu r3,r6
    3b64:	13 ff ff fa 	l.bf 3b4c <_stack+0xfffdf25c>
    3b68:	15 00 00 00 	l.nop 0x0
    3b6c:	84 c5 00 30 	l.lwz r6,0x30(r5)
    3b70:	9c 6e 00 2c 	l.addi r3,r14,0x2c
    3b74:	9c 85 00 2c 	l.addi r4,r5,0x2c
    3b78:	d4 06 18 00 	l.sw 0x0(r6),r3
    3b7c:	d4 0e 30 30 	l.sw 0x30(r14),r6
    3b80:	d4 05 18 30 	l.sw 0x30(r5),r3
    3b84:	03 ff ff d1 	l.j 3ac8 <_stack+0xfffdf1d8>
    3b88:	d4 0e 20 2c 	l.sw 0x2c(r14),r4
    3b8c:	8c 62 00 37 	l.lbz r3,0x37(r2)
    3b90:	9c 63 00 01 	l.addi r3,r3,0x1
    3b94:	03 ff ff a4 	l.j 3a24 <_stack+0xfffdf134>
    3b98:	d8 02 18 37 	l.sb 0x37(r2),r3
    3b9c:	9c ae 00 4d 	l.addi r5,r14,0x4d
    3ba0:	04 00 13 36 	l.jal 8878 <rt_thread_control>
    3ba4:	9c 80 00 02 	l.addi r4,r0,0x2
    3ba8:	03 ff ff bc 	l.j 3a98 <_stack+0xfffdf1a8>
    3bac:	8e 82 00 21 	l.lbz r20,0x21(r2)
    3bb0:	9c 40 ff fe 	l.addi r2,r0,0xfffffffe
    3bb4:	04 00 15 cc 	l.jal 92e4 <rt_hw_interrupt_enable>
    3bb8:	d4 0e 10 48 	l.sw 0x48(r14),r2
    3bbc:	03 ff ff a5 	l.j 3a50 <_stack+0xfffdf160>
    3bc0:	a9 62 00 00 	l.ori r11,r2,0x0

00003bc4 <rt_mutex_release>:
    3bc4:	d7 e1 4f fc 	l.sw 0xfffffffc(r1),r9
    3bc8:	d7 e1 17 f0 	l.sw 0xfffffff0(r1),r2
    3bcc:	d7 e1 77 f4 	l.sw 0xfffffff4(r1),r14
    3bd0:	d7 e1 87 f8 	l.sw 0xfffffff8(r1),r16
    3bd4:	9c 21 ff f0 	l.addi r1,r1,0xfffffff0
    3bd8:	04 00 11 e5 	l.jal 836c <rt_thread_self>
    3bdc:	a8 43 00 00 	l.ori r2,r3,0x0
    3be0:	04 00 15 b2 	l.jal 92a8 <rt_hw_interrupt_disable>
    3be4:	a9 cb 00 00 	l.ori r14,r11,0x0
    3be8:	18 60 00 01 	l.movhi r3,0x1
    3bec:	a8 63 d9 54 	l.ori r3,r3,0xd954
    3bf0:	84 83 00 00 	l.lwz r4,0x0(r3)
    3bf4:	bc 04 00 00 	l.sfeqi r4,0x0
    3bf8:	10 00 00 04 	l.bf 3c08 <rt_mutex_release+0x44>
    3bfc:	aa 0b 00 00 	l.ori r16,r11,0x0
    3c00:	48 00 20 00 	l.jalr r4
    3c04:	a8 62 00 00 	l.ori r3,r2,0x0
    3c08:	84 62 00 38 	l.lwz r3,0x38(r2)
    3c0c:	e4 03 70 00 	l.sfeq r3,r14
    3c10:	0c 00 00 38 	l.bnf 3cf0 <rt_mutex_release+0x12c>
    3c14:	a8 70 00 00 	l.ori r3,r16,0x0
    3c18:	8c 62 00 37 	l.lbz r3,0x37(r2)
    3c1c:	9c 63 ff ff 	l.addi r3,r3,0xffffffff
    3c20:	a4 63 00 ff 	l.andi r3,r3,0xff
    3c24:	bc 23 00 00 	l.sfnei r3,0x0
    3c28:	10 00 00 29 	l.bf 3ccc <rt_mutex_release+0x108>
    3c2c:	d8 02 18 37 	l.sb 0x37(r2),r3
    3c30:	8c 82 00 36 	l.lbz r4,0x36(r2)
    3c34:	8c 6e 00 4d 	l.lbz r3,0x4d(r14)
    3c38:	e4 04 18 00 	l.sfeq r4,r3
    3c3c:	10 00 00 05 	l.bf 3c50 <rt_mutex_release+0x8c>
    3c40:	a8 6e 00 00 	l.ori r3,r14,0x0
    3c44:	9c 80 00 02 	l.addi r4,r0,0x2
    3c48:	04 00 13 0c 	l.jal 8878 <rt_thread_control>
    3c4c:	9c a2 00 36 	l.addi r5,r2,0x36
    3c50:	84 82 00 2c 	l.lwz r4,0x2c(r2)
    3c54:	9c 62 00 2c 	l.addi r3,r2,0x2c
    3c58:	e4 04 18 00 	l.sfeq r4,r3
    3c5c:	10 00 00 15 	l.bf 3cb0 <rt_mutex_release+0xec>
    3c60:	9c 84 ff d4 	l.addi r4,r4,0xffffffd4
    3c64:	8c a2 00 37 	l.lbz r5,0x37(r2)
    3c68:	d4 02 20 38 	l.sw 0x38(r2),r4
    3c6c:	a8 64 00 00 	l.ori r3,r4,0x0
    3c70:	8c 84 00 4d 	l.lbz r4,0x4d(r4)
    3c74:	9c a5 00 01 	l.addi r5,r5,0x1
    3c78:	d8 02 20 36 	l.sb 0x36(r2),r4
    3c7c:	04 00 12 bc 	l.jal 876c <rt_thread_resume>
    3c80:	d8 02 28 37 	l.sb 0x37(r2),r5
    3c84:	04 00 15 98 	l.jal 92e4 <rt_hw_interrupt_enable>
    3c88:	a8 70 00 00 	l.ori r3,r16,0x0
    3c8c:	04 00 10 62 	l.jal 7e14 <rt_schedule>
    3c90:	15 00 00 00 	l.nop 0x0
    3c94:	9c 21 00 10 	l.addi r1,r1,0x10
    3c98:	9d 60 00 00 	l.addi r11,r0,0x0
    3c9c:	85 21 ff fc 	l.lwz r9,0xfffffffc(r1)
    3ca0:	84 41 ff f0 	l.lwz r2,0xfffffff0(r1)
    3ca4:	85 c1 ff f4 	l.lwz r14,0xfffffff4(r1)
    3ca8:	44 00 48 00 	l.jr r9
    3cac:	86 01 ff f8 	l.lwz r16,0xfffffff8(r1)
    3cb0:	94 62 00 34 	l.lhz r3,0x34(r2)
    3cb4:	9c 63 00 01 	l.addi r3,r3,0x1
    3cb8:	9c 80 00 00 	l.addi r4,r0,0x0
    3cbc:	dc 02 18 34 	l.sh 0x34(r2),r3
    3cc0:	9c 60 ff ff 	l.addi r3,r0,0xffffffff
    3cc4:	d4 02 20 38 	l.sw 0x38(r2),r4
    3cc8:	d8 02 18 36 	l.sb 0x36(r2),r3
    3ccc:	04 00 15 86 	l.jal 92e4 <rt_hw_interrupt_enable>
    3cd0:	a8 70 00 00 	l.ori r3,r16,0x0
    3cd4:	9d 60 00 00 	l.addi r11,r0,0x0
    3cd8:	9c 21 00 10 	l.addi r1,r1,0x10
    3cdc:	85 21 ff fc 	l.lwz r9,0xfffffffc(r1)
    3ce0:	84 41 ff f0 	l.lwz r2,0xfffffff0(r1)
    3ce4:	85 c1 ff f4 	l.lwz r14,0xfffffff4(r1)
    3ce8:	44 00 48 00 	l.jr r9
    3cec:	86 01 ff f8 	l.lwz r16,0xfffffff8(r1)
    3cf0:	9c 40 ff ff 	l.addi r2,r0,0xffffffff
    3cf4:	04 00 15 7c 	l.jal 92e4 <rt_hw_interrupt_enable>
    3cf8:	d4 0e 10 48 	l.sw 0x48(r14),r2
    3cfc:	03 ff ff f7 	l.j 3cd8 <_stack+0xfffdf3e8>
    3d00:	a9 62 00 00 	l.ori r11,r2,0x0

00003d04 <rt_mutex_control>:
    3d04:	44 00 48 00 	l.jr r9
    3d08:	9d 60 ff ff 	l.addi r11,r0,0xffffffff

00003d0c <rt_event_init>:
    3d0c:	a8 c4 00 00 	l.ori r6,r4,0x0
    3d10:	d7 e1 4f fc 	l.sw 0xfffffffc(r1),r9
    3d14:	d7 e1 17 f4 	l.sw 0xfffffff4(r1),r2
    3d18:	d7 e1 77 f8 	l.sw 0xfffffff8(r1),r14
    3d1c:	9c 80 00 03 	l.addi r4,r0,0x3
    3d20:	a5 c5 00 ff 	l.andi r14,r5,0xff
    3d24:	9c 21 ff f4 	l.addi r1,r1,0xfffffff4
    3d28:	a8 a6 00 00 	l.ori r5,r6,0x0
    3d2c:	04 00 0e ef 	l.jal 78e8 <rt_object_init>
    3d30:	a8 43 00 00 	l.ori r2,r3,0x0
    3d34:	9c 62 00 2c 	l.addi r3,r2,0x2c
    3d38:	d8 02 70 21 	l.sb 0x21(r2),r14
    3d3c:	d4 02 18 30 	l.sw 0x30(r2),r3
    3d40:	d4 02 18 2c 	l.sw 0x2c(r2),r3
    3d44:	9c 60 00 00 	l.addi r3,r0,0x0
    3d48:	d4 02 18 34 	l.sw 0x34(r2),r3
    3d4c:	9c 21 00 0c 	l.addi r1,r1,0xc
    3d50:	a9 63 00 00 	l.ori r11,r3,0x0
    3d54:	85 21 ff fc 	l.lwz r9,0xfffffffc(r1)
    3d58:	84 41 ff f4 	l.lwz r2,0xfffffff4(r1)
    3d5c:	44 00 48 00 	l.jr r9
    3d60:	85 c1 ff f8 	l.lwz r14,0xfffffff8(r1)

00003d64 <rt_event_detach>:
    3d64:	d7 e1 17 ec 	l.sw 0xffffffec(r1),r2
    3d68:	d7 e1 97 f8 	l.sw 0xfffffff8(r1),r18
    3d6c:	9c 43 00 2c 	l.addi r2,r3,0x2c
    3d70:	d7 e1 4f fc 	l.sw 0xfffffffc(r1),r9
    3d74:	d7 e1 77 f0 	l.sw 0xfffffff0(r1),r14
    3d78:	d7 e1 87 f4 	l.sw 0xfffffff4(r1),r16
    3d7c:	aa 43 00 00 	l.ori r18,r3,0x0
    3d80:	84 63 00 2c 	l.lwz r3,0x2c(r3)
    3d84:	e4 02 18 00 	l.sfeq r2,r3
    3d88:	10 00 00 11 	l.bf 3dcc <rt_event_detach+0x68>
    3d8c:	9c 21 ff ec 	l.addi r1,r1,0xffffffec
    3d90:	9e 00 ff ff 	l.addi r16,r0,0xffffffff
    3d94:	04 00 15 45 	l.jal 92a8 <rt_hw_interrupt_disable>
    3d98:	15 00 00 00 	l.nop 0x0
    3d9c:	84 82 00 00 	l.lwz r4,0x0(r2)
    3da0:	a9 cb 00 00 	l.ori r14,r11,0x0
    3da4:	9c 84 ff d4 	l.addi r4,r4,0xffffffd4
    3da8:	a8 64 00 00 	l.ori r3,r4,0x0
    3dac:	04 00 12 70 	l.jal 876c <rt_thread_resume>
    3db0:	d4 04 80 48 	l.sw 0x48(r4),r16
    3db4:	04 00 15 4c 	l.jal 92e4 <rt_hw_interrupt_enable>
    3db8:	a8 6e 00 00 	l.ori r3,r14,0x0
    3dbc:	84 82 00 00 	l.lwz r4,0x0(r2)
    3dc0:	e4 22 20 00 	l.sfne r2,r4
    3dc4:	13 ff ff f4 	l.bf 3d94 <_stack+0xfffdf4a4>
    3dc8:	15 00 00 00 	l.nop 0x0
    3dcc:	04 00 0e f0 	l.jal 798c <rt_object_detach>
    3dd0:	a8 72 00 00 	l.ori r3,r18,0x0
    3dd4:	9c 21 00 14 	l.addi r1,r1,0x14
    3dd8:	9d 60 00 00 	l.addi r11,r0,0x0
    3ddc:	85 21 ff fc 	l.lwz r9,0xfffffffc(r1)
    3de0:	84 41 ff ec 	l.lwz r2,0xffffffec(r1)
    3de4:	85 c1 ff f0 	l.lwz r14,0xfffffff0(r1)
    3de8:	86 01 ff f4 	l.lwz r16,0xfffffff4(r1)
    3dec:	44 00 48 00 	l.jr r9
    3df0:	86 41 ff f8 	l.lwz r18,0xfffffff8(r1)

00003df4 <rt_event_create>:
    3df4:	a8 a3 00 00 	l.ori r5,r3,0x0
    3df8:	d7 e1 17 f8 	l.sw 0xfffffff8(r1),r2
    3dfc:	d7 e1 4f fc 	l.sw 0xfffffffc(r1),r9
    3e00:	a4 44 00 ff 	l.andi r2,r4,0xff
    3e04:	9c 21 ff f8 	l.addi r1,r1,0xfffffff8
    3e08:	9c 60 00 03 	l.addi r3,r0,0x3
    3e0c:	04 00 0e fa 	l.jal 79f4 <rt_object_allocate>
    3e10:	a8 85 00 00 	l.ori r4,r5,0x0
    3e14:	bc 0b 00 00 	l.sfeqi r11,0x0
    3e18:	10 00 00 07 	l.bf 3e34 <rt_event_create+0x40>
    3e1c:	9c 6b 00 2c 	l.addi r3,r11,0x2c
    3e20:	d8 0b 10 21 	l.sb 0x21(r11),r2
    3e24:	9c 40 00 00 	l.addi r2,r0,0x0
    3e28:	d4 0b 18 30 	l.sw 0x30(r11),r3
    3e2c:	d4 0b 18 2c 	l.sw 0x2c(r11),r3
    3e30:	d4 0b 10 34 	l.sw 0x34(r11),r2
    3e34:	9c 21 00 08 	l.addi r1,r1,0x8
    3e38:	85 21 ff fc 	l.lwz r9,0xfffffffc(r1)
    3e3c:	44 00 48 00 	l.jr r9
    3e40:	84 41 ff f8 	l.lwz r2,0xfffffff8(r1)

00003e44 <rt_event_delete>:
    3e44:	d7 e1 17 ec 	l.sw 0xffffffec(r1),r2
    3e48:	d7 e1 97 f8 	l.sw 0xfffffff8(r1),r18
    3e4c:	9c 43 00 2c 	l.addi r2,r3,0x2c
    3e50:	d7 e1 4f fc 	l.sw 0xfffffffc(r1),r9
    3e54:	d7 e1 77 f0 	l.sw 0xfffffff0(r1),r14
    3e58:	d7 e1 87 f4 	l.sw 0xfffffff4(r1),r16
    3e5c:	aa 43 00 00 	l.ori r18,r3,0x0
    3e60:	84 63 00 2c 	l.lwz r3,0x2c(r3)
    3e64:	e4 02 18 00 	l.sfeq r2,r3
    3e68:	10 00 00 11 	l.bf 3eac <rt_event_delete+0x68>
    3e6c:	9c 21 ff ec 	l.addi r1,r1,0xffffffec
    3e70:	9e 00 ff ff 	l.addi r16,r0,0xffffffff
    3e74:	04 00 15 0d 	l.jal 92a8 <rt_hw_interrupt_disable>
    3e78:	15 00 00 00 	l.nop 0x0
    3e7c:	84 82 00 00 	l.lwz r4,0x0(r2)
    3e80:	a9 cb 00 00 	l.ori r14,r11,0x0
    3e84:	9c 84 ff d4 	l.addi r4,r4,0xffffffd4
    3e88:	a8 64 00 00 	l.ori r3,r4,0x0
    3e8c:	04 00 12 38 	l.jal 876c <rt_thread_resume>
    3e90:	d4 04 80 48 	l.sw 0x48(r4),r16
    3e94:	04 00 15 14 	l.jal 92e4 <rt_hw_interrupt_enable>
    3e98:	a8 6e 00 00 	l.ori r3,r14,0x0
    3e9c:	84 82 00 00 	l.lwz r4,0x0(r2)
    3ea0:	e4 22 20 00 	l.sfne r2,r4
    3ea4:	13 ff ff f4 	l.bf 3e74 <_stack+0xfffdf584>
    3ea8:	15 00 00 00 	l.nop 0x0
    3eac:	04 00 0f 0c 	l.jal 7adc <rt_object_delete>
    3eb0:	a8 72 00 00 	l.ori r3,r18,0x0
    3eb4:	9c 21 00 14 	l.addi r1,r1,0x14
    3eb8:	9d 60 00 00 	l.addi r11,r0,0x0
    3ebc:	85 21 ff fc 	l.lwz r9,0xfffffffc(r1)
    3ec0:	84 41 ff ec 	l.lwz r2,0xffffffec(r1)
    3ec4:	85 c1 ff f0 	l.lwz r14,0xfffffff0(r1)
    3ec8:	86 01 ff f4 	l.lwz r16,0xfffffff4(r1)
    3ecc:	44 00 48 00 	l.jr r9
    3ed0:	86 41 ff f8 	l.lwz r18,0xfffffff8(r1)

00003ed4 <rt_event_send>:
    3ed4:	d7 e1 17 e8 	l.sw 0xffffffe8(r1),r2
    3ed8:	d7 e1 77 ec 	l.sw 0xffffffec(r1),r14
    3edc:	d7 e1 97 f4 	l.sw 0xfffffff4(r1),r18
    3ee0:	d7 e1 4f fc 	l.sw 0xfffffffc(r1),r9
    3ee4:	d7 e1 87 f0 	l.sw 0xfffffff0(r1),r16
    3ee8:	d7 e1 a7 f8 	l.sw 0xfffffff8(r1),r20
    3eec:	aa 44 00 00 	l.ori r18,r4,0x0
    3ef0:	9c 21 ff e8 	l.addi r1,r1,0xffffffe8
    3ef4:	a9 c3 00 00 	l.ori r14,r3,0x0
    3ef8:	bc 04 00 00 	l.sfeqi r4,0x0
    3efc:	10 00 00 2a 	l.bf 3fa4 <rt_event_send+0xd0>
    3f00:	9c 40 ff ff 	l.addi r2,r0,0xffffffff
    3f04:	18 40 00 01 	l.movhi r2,0x1
    3f08:	a8 42 d9 54 	l.ori r2,r2,0xd954
    3f0c:	84 42 00 00 	l.lwz r2,0x0(r2)
    3f10:	bc 02 00 00 	l.sfeqi r2,0x0
    3f14:	10 00 00 04 	l.bf 3f24 <rt_event_send+0x50>
    3f18:	15 00 00 00 	l.nop 0x0
    3f1c:	48 00 10 00 	l.jalr r2
    3f20:	15 00 00 00 	l.nop 0x0
    3f24:	04 00 14 e1 	l.jal 92a8 <rt_hw_interrupt_disable>
    3f28:	9e 0e 00 2c 	l.addi r16,r14,0x2c
    3f2c:	84 4e 00 34 	l.lwz r2,0x34(r14)
    3f30:	e2 42 90 04 	l.or r18,r2,r18
    3f34:	84 4e 00 2c 	l.lwz r2,0x2c(r14)
    3f38:	d4 0e 90 34 	l.sw 0x34(r14),r18
    3f3c:	e4 10 10 00 	l.sfeq r16,r2
    3f40:	10 00 00 3b 	l.bf 402c <_min_stack+0x2c>
    3f44:	aa 8b 00 00 	l.ori r20,r11,0x0
    3f48:	9e 40 00 00 	l.addi r18,r0,0x0
    3f4c:	9c 62 ff d4 	l.addi r3,r2,0xffffffd4
    3f50:	8c 83 00 58 	l.lbz r4,0x58(r3)
    3f54:	a4 a4 00 01 	l.andi r5,r4,0x1
    3f58:	bc 05 00 00 	l.sfeqi r5,0x0
    3f5c:	10 00 00 1b 	l.bf 3fc8 <rt_event_send+0xf4>
    3f60:	a4 a4 00 02 	l.andi r5,r4,0x2
    3f64:	84 e3 00 54 	l.lwz r7,0x54(r3)
    3f68:	84 ae 00 34 	l.lwz r5,0x34(r14)
    3f6c:	e0 c7 28 03 	l.and r6,r7,r5
    3f70:	e4 07 30 00 	l.sfeq r7,r6
    3f74:	10 00 00 1f 	l.bf 3ff0 <rt_event_send+0x11c>
    3f78:	a4 84 00 04 	l.andi r4,r4,0x4
    3f7c:	84 42 00 00 	l.lwz r2,0x0(r2)
    3f80:	e4 30 10 00 	l.sfne r16,r2
    3f84:	13 ff ff f3 	l.bf 3f50 <_stack+0xfffdf660>
    3f88:	9c 62 ff d4 	l.addi r3,r2,0xffffffd4
    3f8c:	a8 74 00 00 	l.ori r3,r20,0x0
    3f90:	04 00 14 d5 	l.jal 92e4 <rt_hw_interrupt_enable>
    3f94:	9c 40 00 00 	l.addi r2,r0,0x0
    3f98:	bc 32 00 01 	l.sfnei r18,0x1
    3f9c:	0c 00 00 20 	l.bnf 401c <_min_stack+0x1c>
    3fa0:	15 00 00 00 	l.nop 0x0
    3fa4:	9c 21 00 18 	l.addi r1,r1,0x18
    3fa8:	a9 62 00 00 	l.ori r11,r2,0x0
    3fac:	85 21 ff fc 	l.lwz r9,0xfffffffc(r1)
    3fb0:	84 41 ff e8 	l.lwz r2,0xffffffe8(r1)
    3fb4:	85 c1 ff ec 	l.lwz r14,0xffffffec(r1)
    3fb8:	86 01 ff f0 	l.lwz r16,0xfffffff0(r1)
    3fbc:	86 41 ff f4 	l.lwz r18,0xfffffff4(r1)
    3fc0:	44 00 48 00 	l.jr r9
    3fc4:	86 81 ff f8 	l.lwz r20,0xfffffff8(r1)
    3fc8:	bc 05 00 00 	l.sfeqi r5,0x0
    3fcc:	13 ff ff ec 	l.bf 3f7c <_stack+0xfffdf68c>
    3fd0:	15 00 00 00 	l.nop 0x0
    3fd4:	84 ae 00 34 	l.lwz r5,0x34(r14)
    3fd8:	84 c3 00 54 	l.lwz r6,0x54(r3)
    3fdc:	e0 c5 30 03 	l.and r6,r5,r6
    3fe0:	bc 06 00 00 	l.sfeqi r6,0x0
    3fe4:	13 ff ff e6 	l.bf 3f7c <_stack+0xfffdf68c>
    3fe8:	a4 84 00 04 	l.andi r4,r4,0x4
    3fec:	d4 03 30 54 	l.sw 0x54(r3),r6
    3ff0:	bc 04 00 00 	l.sfeqi r4,0x0
    3ff4:	10 00 00 06 	l.bf 400c <_min_stack+0xc>
    3ff8:	84 42 00 00 	l.lwz r2,0x0(r2)
    3ffc:	84 83 00 54 	l.lwz r4,0x54(r3)
    4000:	ac 84 ff ff 	l.xori r4,r4,0xffffffff
    4004:	e0 a5 20 03 	l.and r5,r5,r4
    4008:	d4 0e 28 34 	l.sw 0x34(r14),r5
    400c:	04 00 11 d8 	l.jal 876c <rt_thread_resume>
    4010:	9e 40 00 01 	l.addi r18,r0,0x1
    4014:	03 ff ff dc 	l.j 3f84 <_stack+0xfffdf694>
    4018:	e4 30 10 00 	l.sfne r16,r2
    401c:	04 00 0f 7e 	l.jal 7e14 <rt_schedule>
    4020:	15 00 00 00 	l.nop 0x0
    4024:	03 ff ff e1 	l.j 3fa8 <_stack+0xfffdf6b8>
    4028:	9c 21 00 18 	l.addi r1,r1,0x18
    402c:	a8 6b 00 00 	l.ori r3,r11,0x0
    4030:	04 00 14 ad 	l.jal 92e4 <rt_hw_interrupt_enable>
    4034:	9c 40 00 00 	l.addi r2,r0,0x0
    4038:	03 ff ff dc 	l.j 3fa8 <_stack+0xfffdf6b8>
    403c:	9c 21 00 18 	l.addi r1,r1,0x18

00004040 <rt_event_recv>:
    4040:	d7 e1 17 e4 	l.sw 0xffffffe4(r1),r2
    4044:	d7 e1 87 ec 	l.sw 0xffffffec(r1),r16
    4048:	d7 e1 97 f0 	l.sw 0xfffffff0(r1),r18
    404c:	d7 e1 b7 f8 	l.sw 0xfffffff8(r1),r22
    4050:	d7 e1 4f fc 	l.sw 0xfffffffc(r1),r9
    4054:	d7 e1 77 e8 	l.sw 0xffffffe8(r1),r14
    4058:	d7 e1 a7 f4 	l.sw 0xfffffff4(r1),r20
    405c:	9c 21 ff e0 	l.addi r1,r1,0xffffffe0
    4060:	aa 04 00 00 	l.ori r16,r4,0x0
    4064:	d4 01 30 00 	l.sw 0x0(r1),r6
    4068:	a8 43 00 00 	l.ori r2,r3,0x0
    406c:	aa c7 00 00 	l.ori r22,r7,0x0
    4070:	a6 45 00 ff 	l.andi r18,r5,0xff
    4074:	bc 04 00 00 	l.sfeqi r4,0x0
    4078:	0c 00 00 0b 	l.bnf 40a4 <rt_event_recv+0x64>
    407c:	9d 60 ff ff 	l.addi r11,r0,0xffffffff
    4080:	9c 21 00 20 	l.addi r1,r1,0x20
    4084:	85 21 ff fc 	l.lwz r9,0xfffffffc(r1)
    4088:	84 41 ff e4 	l.lwz r2,0xffffffe4(r1)
    408c:	85 c1 ff e8 	l.lwz r14,0xffffffe8(r1)
    4090:	86 01 ff ec 	l.lwz r16,0xffffffec(r1)
    4094:	86 41 ff f0 	l.lwz r18,0xfffffff0(r1)
    4098:	86 81 ff f4 	l.lwz r20,0xfffffff4(r1)
    409c:	44 00 48 00 	l.jr r9
    40a0:	86 c1 ff f8 	l.lwz r22,0xfffffff8(r1)
    40a4:	04 00 10 b2 	l.jal 836c <rt_thread_self>
    40a8:	15 00 00 00 	l.nop 0x0
    40ac:	9c 60 00 00 	l.addi r3,r0,0x0
    40b0:	d4 0b 18 48 	l.sw 0x48(r11),r3
    40b4:	18 60 00 01 	l.movhi r3,0x1
    40b8:	a8 63 d9 5c 	l.ori r3,r3,0xd95c
    40bc:	84 83 00 00 	l.lwz r4,0x0(r3)
    40c0:	bc 04 00 00 	l.sfeqi r4,0x0
    40c4:	10 00 00 04 	l.bf 40d4 <rt_event_recv+0x94>
    40c8:	a9 cb 00 00 	l.ori r14,r11,0x0
    40cc:	48 00 20 00 	l.jalr r4
    40d0:	a8 62 00 00 	l.ori r3,r2,0x0
    40d4:	04 00 14 75 	l.jal 92a8 <rt_hw_interrupt_disable>
    40d8:	15 00 00 00 	l.nop 0x0
    40dc:	a4 92 00 01 	l.andi r4,r18,0x1
    40e0:	aa 8b 00 00 	l.ori r20,r11,0x0
    40e4:	bc 04 00 00 	l.sfeqi r4,0x0
    40e8:	10 00 00 18 	l.bf 4148 <rt_event_recv+0x108>
    40ec:	a8 6b 00 00 	l.ori r3,r11,0x0
    40f0:	84 82 00 34 	l.lwz r4,0x34(r2)
    40f4:	e0 90 20 03 	l.and r4,r16,r4
    40f8:	e4 04 80 00 	l.sfeq r4,r16
    40fc:	10 00 00 1c 	l.bf 416c <rt_event_recv+0x12c>
    4100:	15 00 00 00 	l.nop 0x0
    4104:	84 81 00 00 	l.lwz r4,0x0(r1)
    4108:	bc 04 00 00 	l.sfeqi r4,0x0
    410c:	0c 00 00 21 	l.bnf 4190 <rt_event_recv+0x150>
    4110:	9c 80 ff fe 	l.addi r4,r0,0xfffffffe
    4114:	d4 0e 20 48 	l.sw 0x48(r14),r4
    4118:	04 00 14 73 	l.jal 92e4 <rt_hw_interrupt_enable>
    411c:	15 00 00 00 	l.nop 0x0
    4120:	18 60 00 01 	l.movhi r3,0x1
    4124:	a8 63 d9 58 	l.ori r3,r3,0xd958
    4128:	84 83 00 00 	l.lwz r4,0x0(r3)
    412c:	bc 04 00 00 	l.sfeqi r4,0x0
    4130:	10 00 00 04 	l.bf 4140 <rt_event_recv+0x100>
    4134:	15 00 00 00 	l.nop 0x0
    4138:	48 00 20 00 	l.jalr r4
    413c:	a8 62 00 00 	l.ori r3,r2,0x0
    4140:	03 ff ff d0 	l.j 4080 <_stack+0xfffdf790>
    4144:	85 6e 00 48 	l.lwz r11,0x48(r14)
    4148:	a4 92 00 02 	l.andi r4,r18,0x2
    414c:	bc 04 00 00 	l.sfeqi r4,0x0
    4150:	13 ff ff ee 	l.bf 4108 <_stack+0xfffdf818>
    4154:	84 81 00 00 	l.lwz r4,0x0(r1)
    4158:	84 82 00 34 	l.lwz r4,0x34(r2)
    415c:	e0 90 20 03 	l.and r4,r16,r4
    4160:	bc 04 00 00 	l.sfeqi r4,0x0
    4164:	13 ff ff e8 	l.bf 4104 <_stack+0xfffdf814>
    4168:	15 00 00 00 	l.nop 0x0
    416c:	a6 52 00 04 	l.andi r18,r18,0x4
    4170:	bc 12 00 00 	l.sfeqi r18,0x0
    4174:	13 ff ff e9 	l.bf 4118 <_stack+0xfffdf828>
    4178:	d4 16 20 00 	l.sw 0x0(r22),r4
    417c:	84 82 00 34 	l.lwz r4,0x34(r2)
    4180:	ae 10 ff ff 	l.xori r16,r16,0xffffffff
    4184:	e2 04 80 03 	l.and r16,r4,r16
    4188:	03 ff ff e4 	l.j 4118 <_stack+0xfffdf828>
    418c:	d4 02 80 34 	l.sw 0x34(r2),r16
    4190:	d4 0e 80 54 	l.sw 0x54(r14),r16
    4194:	d8 0e 90 58 	l.sb 0x58(r14),r18
    4198:	a8 6e 00 00 	l.ori r3,r14,0x0
    419c:	04 00 11 2d 	l.jal 8650 <rt_thread_suspend>
    41a0:	8e 02 00 21 	l.lbz r16,0x21(r2)
    41a4:	bc 10 00 00 	l.sfeqi r16,0x0
    41a8:	10 00 00 30 	l.bf 4268 <rt_event_recv+0x228>
    41ac:	9c a2 00 2c 	l.addi r5,r2,0x2c
    41b0:	bc 10 00 01 	l.sfeqi r16,0x1
    41b4:	10 00 00 1a 	l.bf 421c <rt_event_recv+0x1dc>
    41b8:	15 00 00 00 	l.nop 0x0
    41bc:	84 61 00 00 	l.lwz r3,0x0(r1)
    41c0:	bd a3 00 00 	l.sflesi r3,0x0
    41c4:	10 00 00 08 	l.bf 41e4 <rt_event_recv+0x1a4>
    41c8:	9c 80 00 00 	l.addi r4,r0,0x0
    41cc:	9e 0e 00 64 	l.addi r16,r14,0x64
    41d0:	a8 70 00 00 	l.ori r3,r16,0x0
    41d4:	04 00 13 10 	l.jal 8e14 <rt_timer_control>
    41d8:	a8 a1 00 00 	l.ori r5,r1,0x0
    41dc:	04 00 12 a0 	l.jal 8c5c <rt_timer_start>
    41e0:	a8 70 00 00 	l.ori r3,r16,0x0
    41e4:	04 00 14 40 	l.jal 92e4 <rt_hw_interrupt_enable>
    41e8:	a8 74 00 00 	l.ori r3,r20,0x0
    41ec:	04 00 0f 0a 	l.jal 7e14 <rt_schedule>
    41f0:	15 00 00 00 	l.nop 0x0
    41f4:	85 6e 00 48 	l.lwz r11,0x48(r14)
    41f8:	bc 2b 00 00 	l.sfnei r11,0x0
    41fc:	13 ff ff a1 	l.bf 4080 <_stack+0xfffdf790>
    4200:	15 00 00 00 	l.nop 0x0
    4204:	04 00 14 29 	l.jal 92a8 <rt_hw_interrupt_disable>
    4208:	15 00 00 00 	l.nop 0x0
    420c:	84 8e 00 54 	l.lwz r4,0x54(r14)
    4210:	a8 6b 00 00 	l.ori r3,r11,0x0
    4214:	03 ff ff c1 	l.j 4118 <_stack+0xfffdf828>
    4218:	d4 16 20 00 	l.sw 0x0(r22),r4
    421c:	84 62 00 2c 	l.lwz r3,0x2c(r2)
    4220:	e4 05 18 00 	l.sfeq r5,r3
    4224:	10 00 00 11 	l.bf 4268 <rt_event_recv+0x228>
    4228:	9c 83 ff d4 	l.addi r4,r3,0xffffffd4
    422c:	8c ee 00 4d 	l.lbz r7,0x4d(r14)
    4230:	8c c4 00 4d 	l.lbz r6,0x4d(r4)
    4234:	e4 46 38 00 	l.sfgtu r6,r7
    4238:	0c 00 00 08 	l.bnf 4258 <rt_event_recv+0x218>
    423c:	15 00 00 00 	l.nop 0x0
    4240:	00 00 00 12 	l.j 4288 <rt_event_recv+0x248>
    4244:	84 c4 00 30 	l.lwz r6,0x30(r4)
    4248:	8c c4 00 4d 	l.lbz r6,0x4d(r4)
    424c:	e4 a6 38 00 	l.sfleu r6,r7
    4250:	0c 00 00 0d 	l.bnf 4284 <rt_event_recv+0x244>
    4254:	15 00 00 00 	l.nop 0x0
    4258:	84 63 00 00 	l.lwz r3,0x0(r3)
    425c:	e4 25 18 00 	l.sfne r5,r3
    4260:	13 ff ff fa 	l.bf 4248 <_stack+0xfffdf958>
    4264:	9c 83 ff d4 	l.addi r4,r3,0xffffffd4
    4268:	84 82 00 30 	l.lwz r4,0x30(r2)
    426c:	9c 6e 00 2c 	l.addi r3,r14,0x2c
    4270:	d4 0e 20 30 	l.sw 0x30(r14),r4
    4274:	d4 04 18 00 	l.sw 0x0(r4),r3
    4278:	d4 02 18 30 	l.sw 0x30(r2),r3
    427c:	03 ff ff d0 	l.j 41bc <_stack+0xfffdf8cc>
    4280:	d4 0e 28 2c 	l.sw 0x2c(r14),r5
    4284:	84 c4 00 30 	l.lwz r6,0x30(r4)
    4288:	9c 6e 00 2c 	l.addi r3,r14,0x2c
    428c:	9c a4 00 2c 	l.addi r5,r4,0x2c
    4290:	d4 06 18 00 	l.sw 0x0(r6),r3
    4294:	d4 0e 30 30 	l.sw 0x30(r14),r6
    4298:	d4 04 18 30 	l.sw 0x30(r4),r3
    429c:	03 ff ff c8 	l.j 41bc <_stack+0xfffdf8cc>
    42a0:	d4 0e 28 2c 	l.sw 0x2c(r14),r5

000042a4 <rt_event_control>:
    42a4:	d7 e1 77 ec 	l.sw 0xffffffec(r1),r14
    42a8:	d7 e1 97 f4 	l.sw 0xfffffff4(r1),r18
    42ac:	d7 e1 4f fc 	l.sw 0xfffffffc(r1),r9
    42b0:	d7 e1 17 e8 	l.sw 0xffffffe8(r1),r2
    42b4:	d7 e1 87 f0 	l.sw 0xfffffff0(r1),r16
    42b8:	d7 e1 a7 f8 	l.sw 0xfffffff8(r1),r20
    42bc:	a4 84 00 ff 	l.andi r4,r4,0xff
    42c0:	9c 21 ff e8 	l.addi r1,r1,0xffffffe8
    42c4:	aa 43 00 00 	l.ori r18,r3,0x0
    42c8:	bc 24 00 01 	l.sfnei r4,0x1
    42cc:	0c 00 00 0b 	l.bnf 42f8 <rt_event_control+0x54>
    42d0:	9d c0 ff ff 	l.addi r14,r0,0xffffffff
    42d4:	9c 21 00 18 	l.addi r1,r1,0x18
    42d8:	a9 6e 00 00 	l.ori r11,r14,0x0
    42dc:	85 21 ff fc 	l.lwz r9,0xfffffffc(r1)
    42e0:	84 41 ff e8 	l.lwz r2,0xffffffe8(r1)
    42e4:	85 c1 ff ec 	l.lwz r14,0xffffffec(r1)
    42e8:	86 01 ff f0 	l.lwz r16,0xfffffff0(r1)
    42ec:	86 41 ff f4 	l.lwz r18,0xfffffff4(r1)
    42f0:	44 00 48 00 	l.jr r9
    42f4:	86 81 ff f8 	l.lwz r20,0xfffffff8(r1)
    42f8:	04 00 13 ec 	l.jal 92a8 <rt_hw_interrupt_disable>
    42fc:	9c 52 00 2c 	l.addi r2,r18,0x2c
    4300:	84 72 00 2c 	l.lwz r3,0x2c(r18)
    4304:	e4 02 18 00 	l.sfeq r2,r3
    4308:	10 00 00 10 	l.bf 4348 <rt_event_control+0xa4>
    430c:	aa 8b 00 00 	l.ori r20,r11,0x0
    4310:	04 00 13 e6 	l.jal 92a8 <rt_hw_interrupt_disable>
    4314:	15 00 00 00 	l.nop 0x0
    4318:	84 82 00 00 	l.lwz r4,0x0(r2)
    431c:	aa 0b 00 00 	l.ori r16,r11,0x0
    4320:	9c 84 ff d4 	l.addi r4,r4,0xffffffd4
    4324:	a8 64 00 00 	l.ori r3,r4,0x0
    4328:	04 00 11 11 	l.jal 876c <rt_thread_resume>
    432c:	d4 04 70 48 	l.sw 0x48(r4),r14
    4330:	04 00 13 ed 	l.jal 92e4 <rt_hw_interrupt_enable>
    4334:	a8 70 00 00 	l.ori r3,r16,0x0
    4338:	84 82 00 00 	l.lwz r4,0x0(r2)
    433c:	e4 22 20 00 	l.sfne r2,r4
    4340:	13 ff ff f4 	l.bf 4310 <_stack+0xfffdfa20>
    4344:	15 00 00 00 	l.nop 0x0
    4348:	9c 40 00 00 	l.addi r2,r0,0x0
    434c:	a8 74 00 00 	l.ori r3,r20,0x0
    4350:	d4 12 10 34 	l.sw 0x34(r18),r2
    4354:	04 00 13 e4 	l.jal 92e4 <rt_hw_interrupt_enable>
    4358:	a9 c2 00 00 	l.ori r14,r2,0x0
    435c:	04 00 0e ae 	l.jal 7e14 <rt_schedule>
    4360:	15 00 00 00 	l.nop 0x0
    4364:	03 ff ff dd 	l.j 42d8 <_stack+0xfffdf9e8>
    4368:	9c 21 00 18 	l.addi r1,r1,0x18

0000436c <rt_mb_init>:
    436c:	a9 04 00 00 	l.ori r8,r4,0x0
    4370:	d7 e1 4f fc 	l.sw 0xfffffffc(r1),r9
    4374:	d7 e1 17 ec 	l.sw 0xffffffec(r1),r2
    4378:	d7 e1 77 f0 	l.sw 0xfffffff0(r1),r14
    437c:	d7 e1 87 f4 	l.sw 0xfffffff4(r1),r16
    4380:	d7 e1 97 f8 	l.sw 0xfffffff8(r1),r18
    4384:	aa 05 00 00 	l.ori r16,r5,0x0
    4388:	9c 21 ff ec 	l.addi r1,r1,0xffffffec
    438c:	9c 80 00 04 	l.addi r4,r0,0x4
    4390:	a8 a8 00 00 	l.ori r5,r8,0x0
    4394:	a8 43 00 00 	l.ori r2,r3,0x0
    4398:	a9 c6 00 00 	l.ori r14,r6,0x0
    439c:	04 00 0d 53 	l.jal 78e8 <rt_object_init>
    43a0:	a6 47 00 ff 	l.andi r18,r7,0xff
    43a4:	9d 60 00 00 	l.addi r11,r0,0x0
    43a8:	9c 82 00 2c 	l.addi r4,r2,0x2c
    43ac:	9c 62 00 40 	l.addi r3,r2,0x40
    43b0:	d8 02 90 21 	l.sb 0x21(r2),r18
    43b4:	d4 02 80 34 	l.sw 0x34(r2),r16
    43b8:	dc 02 70 38 	l.sh 0x38(r2),r14
    43bc:	d4 02 20 30 	l.sw 0x30(r2),r4
    43c0:	d4 02 20 2c 	l.sw 0x2c(r2),r4
    43c4:	dc 02 58 3a 	l.sh 0x3a(r2),r11
    43c8:	dc 02 58 3c 	l.sh 0x3c(r2),r11
    43cc:	dc 02 58 3e 	l.sh 0x3e(r2),r11
    43d0:	d4 02 18 44 	l.sw 0x44(r2),r3
    43d4:	d4 02 18 40 	l.sw 0x40(r2),r3
    43d8:	9c 21 00 14 	l.addi r1,r1,0x14
    43dc:	85 21 ff fc 	l.lwz r9,0xfffffffc(r1)
    43e0:	84 41 ff ec 	l.lwz r2,0xffffffec(r1)
    43e4:	85 c1 ff f0 	l.lwz r14,0xfffffff0(r1)
    43e8:	86 01 ff f4 	l.lwz r16,0xfffffff4(r1)
    43ec:	44 00 48 00 	l.jr r9
    43f0:	86 41 ff f8 	l.lwz r18,0xfffffff8(r1)

000043f4 <rt_mb_detach>:
    43f4:	d7 e1 17 ec 	l.sw 0xffffffec(r1),r2
    43f8:	d7 e1 87 f4 	l.sw 0xfffffff4(r1),r16
    43fc:	9c 43 00 2c 	l.addi r2,r3,0x2c
    4400:	d7 e1 4f fc 	l.sw 0xfffffffc(r1),r9
    4404:	d7 e1 77 f0 	l.sw 0xfffffff0(r1),r14
    4408:	d7 e1 97 f8 	l.sw 0xfffffff8(r1),r18
    440c:	aa 03 00 00 	l.ori r16,r3,0x0
    4410:	84 63 00 2c 	l.lwz r3,0x2c(r3)
    4414:	e4 02 18 00 	l.sfeq r2,r3
    4418:	10 00 00 11 	l.bf 445c <rt_mb_detach+0x68>
    441c:	9c 21 ff ec 	l.addi r1,r1,0xffffffec
    4420:	9e 40 ff ff 	l.addi r18,r0,0xffffffff
    4424:	04 00 13 a1 	l.jal 92a8 <rt_hw_interrupt_disable>
    4428:	15 00 00 00 	l.nop 0x0
    442c:	84 82 00 00 	l.lwz r4,0x0(r2)
    4430:	a9 cb 00 00 	l.ori r14,r11,0x0
    4434:	9c 84 ff d4 	l.addi r4,r4,0xffffffd4
    4438:	a8 64 00 00 	l.ori r3,r4,0x0
    443c:	04 00 10 cc 	l.jal 876c <rt_thread_resume>
    4440:	d4 04 90 48 	l.sw 0x48(r4),r18
    4444:	04 00 13 a8 	l.jal 92e4 <rt_hw_interrupt_enable>
    4448:	a8 6e 00 00 	l.ori r3,r14,0x0
    444c:	84 62 00 00 	l.lwz r3,0x0(r2)
    4450:	e4 22 18 00 	l.sfne r2,r3
    4454:	13 ff ff f4 	l.bf 4424 <_stack+0xfffdfb34>
    4458:	15 00 00 00 	l.nop 0x0
    445c:	9c 50 00 40 	l.addi r2,r16,0x40
    4460:	84 70 00 40 	l.lwz r3,0x40(r16)
    4464:	e4 02 18 00 	l.sfeq r2,r3
    4468:	10 00 00 11 	l.bf 44ac <rt_mb_detach+0xb8>
    446c:	15 00 00 00 	l.nop 0x0
    4470:	9e 40 ff ff 	l.addi r18,r0,0xffffffff
    4474:	04 00 13 8d 	l.jal 92a8 <rt_hw_interrupt_disable>
    4478:	15 00 00 00 	l.nop 0x0
    447c:	84 82 00 00 	l.lwz r4,0x0(r2)
    4480:	a9 cb 00 00 	l.ori r14,r11,0x0
    4484:	9c 84 ff d4 	l.addi r4,r4,0xffffffd4
    4488:	a8 64 00 00 	l.ori r3,r4,0x0
    448c:	04 00 10 b8 	l.jal 876c <rt_thread_resume>
    4490:	d4 04 90 48 	l.sw 0x48(r4),r18
    4494:	04 00 13 94 	l.jal 92e4 <rt_hw_interrupt_enable>
    4498:	a8 6e 00 00 	l.ori r3,r14,0x0
    449c:	84 62 00 00 	l.lwz r3,0x0(r2)
    44a0:	e4 22 18 00 	l.sfne r2,r3
    44a4:	13 ff ff f4 	l.bf 4474 <_stack+0xfffdfb84>
    44a8:	15 00 00 00 	l.nop 0x0
    44ac:	04 00 0d 38 	l.jal 798c <rt_object_detach>
    44b0:	a8 70 00 00 	l.ori r3,r16,0x0
    44b4:	9c 21 00 14 	l.addi r1,r1,0x14
    44b8:	9d 60 00 00 	l.addi r11,r0,0x0
    44bc:	85 21 ff fc 	l.lwz r9,0xfffffffc(r1)
    44c0:	84 41 ff ec 	l.lwz r2,0xffffffec(r1)
    44c4:	85 c1 ff f0 	l.lwz r14,0xfffffff0(r1)
    44c8:	86 01 ff f4 	l.lwz r16,0xfffffff4(r1)
    44cc:	44 00 48 00 	l.jr r9
    44d0:	86 41 ff f8 	l.lwz r18,0xfffffff8(r1)

000044d4 <rt_mb_create>:
    44d4:	d7 e1 17 f0 	l.sw 0xfffffff0(r1),r2
    44d8:	a8 43 00 00 	l.ori r2,r3,0x0
    44dc:	d7 e1 77 f4 	l.sw 0xfffffff4(r1),r14
    44e0:	d7 e1 87 f8 	l.sw 0xfffffff8(r1),r16
    44e4:	d7 e1 4f fc 	l.sw 0xfffffffc(r1),r9
    44e8:	aa 04 00 00 	l.ori r16,r4,0x0
    44ec:	9c 21 ff f0 	l.addi r1,r1,0xfffffff0
    44f0:	a8 82 00 00 	l.ori r4,r2,0x0
    44f4:	9c 60 00 04 	l.addi r3,r0,0x4
    44f8:	04 00 0d 3f 	l.jal 79f4 <rt_object_allocate>
    44fc:	a5 c5 00 ff 	l.andi r14,r5,0xff
    4500:	bc 0b 00 00 	l.sfeqi r11,0x0
    4504:	10 00 00 14 	l.bf 4554 <rt_mb_create+0x80>
    4508:	a8 4b 00 00 	l.ori r2,r11,0x0
    450c:	a4 90 ff ff 	l.andi r4,r16,0xffff
    4510:	9c cb 00 2c 	l.addi r6,r11,0x2c
    4514:	b8 64 00 02 	l.slli r3,r4,0x2
    4518:	d8 0b 70 21 	l.sb 0x21(r11),r14
    451c:	d4 0b 30 30 	l.sw 0x30(r11),r6
    4520:	d4 0b 30 2c 	l.sw 0x2c(r11),r6
    4524:	04 00 09 e9 	l.jal 6cc8 <rt_malloc>
    4528:	dc 0b 20 38 	l.sh 0x38(r11),r4
    452c:	bc 2b 00 00 	l.sfnei r11,0x0
    4530:	0c 00 00 10 	l.bnf 4570 <rt_mb_create+0x9c>
    4534:	d4 02 58 34 	l.sw 0x34(r2),r11
    4538:	9c 80 00 00 	l.addi r4,r0,0x0
    453c:	9c 62 00 40 	l.addi r3,r2,0x40
    4540:	dc 02 20 3a 	l.sh 0x3a(r2),r4
    4544:	dc 02 20 3c 	l.sh 0x3c(r2),r4
    4548:	dc 02 20 3e 	l.sh 0x3e(r2),r4
    454c:	d4 02 18 44 	l.sw 0x44(r2),r3
    4550:	d4 02 18 40 	l.sw 0x40(r2),r3
    4554:	9c 21 00 10 	l.addi r1,r1,0x10
    4558:	a9 62 00 00 	l.ori r11,r2,0x0
    455c:	85 21 ff fc 	l.lwz r9,0xfffffffc(r1)
    4560:	84 41 ff f0 	l.lwz r2,0xfffffff0(r1)
    4564:	85 c1 ff f4 	l.lwz r14,0xfffffff4(r1)
    4568:	44 00 48 00 	l.jr r9
    456c:	86 01 ff f8 	l.lwz r16,0xfffffff8(r1)
    4570:	a8 62 00 00 	l.ori r3,r2,0x0
    4574:	04 00 0d 5a 	l.jal 7adc <rt_object_delete>
    4578:	a8 4b 00 00 	l.ori r2,r11,0x0
    457c:	03 ff ff f7 	l.j 4558 <_stack+0xfffdfc68>
    4580:	9c 21 00 10 	l.addi r1,r1,0x10

00004584 <rt_mb_delete>:
    4584:	d7 e1 17 ec 	l.sw 0xffffffec(r1),r2
    4588:	d7 e1 87 f4 	l.sw 0xfffffff4(r1),r16
    458c:	9c 43 00 2c 	l.addi r2,r3,0x2c
    4590:	d7 e1 4f fc 	l.sw 0xfffffffc(r1),r9
    4594:	d7 e1 77 f0 	l.sw 0xfffffff0(r1),r14
    4598:	d7 e1 97 f8 	l.sw 0xfffffff8(r1),r18
    459c:	aa 03 00 00 	l.ori r16,r3,0x0
    45a0:	84 63 00 2c 	l.lwz r3,0x2c(r3)
    45a4:	e4 02 18 00 	l.sfeq r2,r3
    45a8:	10 00 00 11 	l.bf 45ec <rt_mb_delete+0x68>
    45ac:	9c 21 ff ec 	l.addi r1,r1,0xffffffec
    45b0:	9e 40 ff ff 	l.addi r18,r0,0xffffffff
    45b4:	04 00 13 3d 	l.jal 92a8 <rt_hw_interrupt_disable>
    45b8:	15 00 00 00 	l.nop 0x0
    45bc:	84 82 00 00 	l.lwz r4,0x0(r2)
    45c0:	a9 cb 00 00 	l.ori r14,r11,0x0
    45c4:	9c 84 ff d4 	l.addi r4,r4,0xffffffd4
    45c8:	a8 64 00 00 	l.ori r3,r4,0x0
    45cc:	04 00 10 68 	l.jal 876c <rt_thread_resume>
    45d0:	d4 04 90 48 	l.sw 0x48(r4),r18
    45d4:	04 00 13 44 	l.jal 92e4 <rt_hw_interrupt_enable>
    45d8:	a8 6e 00 00 	l.ori r3,r14,0x0
    45dc:	84 62 00 00 	l.lwz r3,0x0(r2)
    45e0:	e4 22 18 00 	l.sfne r2,r3
    45e4:	13 ff ff f4 	l.bf 45b4 <_stack+0xfffdfcc4>
    45e8:	15 00 00 00 	l.nop 0x0
    45ec:	9c 50 00 40 	l.addi r2,r16,0x40
    45f0:	84 70 00 40 	l.lwz r3,0x40(r16)
    45f4:	e4 02 18 00 	l.sfeq r2,r3
    45f8:	10 00 00 11 	l.bf 463c <rt_mb_delete+0xb8>
    45fc:	15 00 00 00 	l.nop 0x0
    4600:	9e 40 ff ff 	l.addi r18,r0,0xffffffff
    4604:	04 00 13 29 	l.jal 92a8 <rt_hw_interrupt_disable>
    4608:	15 00 00 00 	l.nop 0x0
    460c:	84 82 00 00 	l.lwz r4,0x0(r2)
    4610:	a9 cb 00 00 	l.ori r14,r11,0x0
    4614:	9c 84 ff d4 	l.addi r4,r4,0xffffffd4
    4618:	a8 64 00 00 	l.ori r3,r4,0x0
    461c:	04 00 10 54 	l.jal 876c <rt_thread_resume>
    4620:	d4 04 90 48 	l.sw 0x48(r4),r18
    4624:	04 00 13 30 	l.jal 92e4 <rt_hw_interrupt_enable>
    4628:	a8 6e 00 00 	l.ori r3,r14,0x0
    462c:	84 62 00 00 	l.lwz r3,0x0(r2)
    4630:	e4 22 18 00 	l.sfne r2,r3
    4634:	13 ff ff f4 	l.bf 4604 <_stack+0xfffdfd14>
    4638:	15 00 00 00 	l.nop 0x0
    463c:	04 00 0a 50 	l.jal 6f7c <rt_free>
    4640:	84 70 00 34 	l.lwz r3,0x34(r16)
    4644:	04 00 0d 26 	l.jal 7adc <rt_object_delete>
    4648:	a8 70 00 00 	l.ori r3,r16,0x0
    464c:	9c 21 00 14 	l.addi r1,r1,0x14
    4650:	9d 60 00 00 	l.addi r11,r0,0x0
    4654:	85 21 ff fc 	l.lwz r9,0xfffffffc(r1)
    4658:	84 41 ff ec 	l.lwz r2,0xffffffec(r1)
    465c:	85 c1 ff f0 	l.lwz r14,0xfffffff0(r1)
    4660:	86 01 ff f4 	l.lwz r16,0xfffffff4(r1)
    4664:	44 00 48 00 	l.jr r9
    4668:	86 41 ff f8 	l.lwz r18,0xfffffff8(r1)

0000466c <rt_mb_send_wait>:
    466c:	d7 e1 17 d4 	l.sw 0xffffffd4(r1),r2
    4670:	d7 e1 77 d8 	l.sw 0xffffffd8(r1),r14
    4674:	d7 e1 f7 f8 	l.sw 0xfffffff8(r1),r30
    4678:	d7 e1 4f fc 	l.sw 0xfffffffc(r1),r9
    467c:	d7 e1 87 dc 	l.sw 0xffffffdc(r1),r16
    4680:	d7 e1 97 e0 	l.sw 0xffffffe0(r1),r18
    4684:	d7 e1 a7 e4 	l.sw 0xffffffe4(r1),r20
    4688:	d7 e1 b7 e8 	l.sw 0xffffffe8(r1),r22
    468c:	d7 e1 c7 ec 	l.sw 0xffffffec(r1),r24
    4690:	d7 e1 d7 f0 	l.sw 0xfffffff0(r1),r26
    4694:	d7 e1 e7 f4 	l.sw 0xfffffff4(r1),r28
    4698:	9c 21 ff d0 	l.addi r1,r1,0xffffffd0
    469c:	a8 43 00 00 	l.ori r2,r3,0x0
    46a0:	d4 01 28 00 	l.sw 0x0(r1),r5
    46a4:	04 00 0f 32 	l.jal 836c <rt_thread_self>
    46a8:	ab c4 00 00 	l.ori r30,r4,0x0
    46ac:	18 60 00 01 	l.movhi r3,0x1
    46b0:	a8 63 d9 54 	l.ori r3,r3,0xd954
    46b4:	84 a3 00 00 	l.lwz r5,0x0(r3)
    46b8:	bc 05 00 00 	l.sfeqi r5,0x0
    46bc:	10 00 00 04 	l.bf 46cc <rt_mb_send_wait+0x60>
    46c0:	a9 cb 00 00 	l.ori r14,r11,0x0
    46c4:	48 00 28 00 	l.jalr r5
    46c8:	a8 62 00 00 	l.ori r3,r2,0x0
    46cc:	04 00 12 f7 	l.jal 92a8 <rt_hw_interrupt_disable>
    46d0:	15 00 00 00 	l.nop 0x0
    46d4:	84 61 00 00 	l.lwz r3,0x0(r1)
    46d8:	94 c2 00 3a 	l.lhz r6,0x3a(r2)
    46dc:	e0 a0 18 02 	l.sub r5,r0,r3
    46e0:	e0 65 18 04 	l.or r3,r5,r3
    46e4:	bd 83 00 00 	l.sfltsi r3,0x0
    46e8:	0c 00 00 5c 	l.bnf 4858 <rt_mb_send_wait+0x1ec>
    46ec:	94 e2 00 38 	l.lhz r7,0x38(r2)
    46f0:	aa cb 00 00 	l.ori r22,r11,0x0
    46f4:	9e 80 00 00 	l.addi r20,r0,0x0
    46f8:	9e 02 00 40 	l.addi r16,r2,0x40
    46fc:	9f 0e 00 2c 	l.addi r24,r14,0x2c
    4700:	00 00 00 2c 	l.j 47b0 <rt_mb_send_wait+0x144>
    4704:	9f 4e 00 64 	l.addi r26,r14,0x64
    4708:	84 62 00 44 	l.lwz r3,0x44(r2)
    470c:	d4 03 c0 00 	l.sw 0x0(r3),r24
    4710:	d4 0e 18 30 	l.sw 0x30(r14),r3
    4714:	d4 02 c0 44 	l.sw 0x44(r2),r24
    4718:	d4 0e 80 2c 	l.sw 0x2c(r14),r16
    471c:	84 61 00 00 	l.lwz r3,0x0(r1)
    4720:	bd a3 00 00 	l.sflesi r3,0x0
    4724:	10 00 00 0b 	l.bf 4750 <rt_mb_send_wait+0xe4>
    4728:	15 00 00 00 	l.nop 0x0
    472c:	07 ff f8 ed 	l.jal 2ae0 <_stack+0xfffde1f0>
    4730:	15 00 00 00 	l.nop 0x0
    4734:	a8 7a 00 00 	l.ori r3,r26,0x0
    4738:	9c 80 00 00 	l.addi r4,r0,0x0
    473c:	a8 a1 00 00 	l.ori r5,r1,0x0
    4740:	04 00 11 b5 	l.jal 8e14 <rt_timer_control>
    4744:	aa 8b 00 00 	l.ori r20,r11,0x0
    4748:	04 00 11 45 	l.jal 8c5c <rt_timer_start>
    474c:	a8 7a 00 00 	l.ori r3,r26,0x0
    4750:	04 00 12 e5 	l.jal 92e4 <rt_hw_interrupt_enable>
    4754:	a8 76 00 00 	l.ori r3,r22,0x0
    4758:	04 00 0d af 	l.jal 7e14 <rt_schedule>
    475c:	15 00 00 00 	l.nop 0x0
    4760:	86 4e 00 48 	l.lwz r18,0x48(r14)
    4764:	bc 32 00 00 	l.sfnei r18,0x0
    4768:	10 00 00 44 	l.bf 4878 <rt_mb_send_wait+0x20c>
    476c:	15 00 00 00 	l.nop 0x0
    4770:	04 00 12 ce 	l.jal 92a8 <rt_hw_interrupt_disable>
    4774:	15 00 00 00 	l.nop 0x0
    4778:	84 61 00 00 	l.lwz r3,0x0(r1)
    477c:	bd a3 00 00 	l.sflesi r3,0x0
    4780:	10 00 00 0a 	l.bf 47a8 <rt_mb_send_wait+0x13c>
    4784:	aa cb 00 00 	l.ori r22,r11,0x0
    4788:	07 ff f8 d6 	l.jal 2ae0 <_stack+0xfffde1f0>
    478c:	15 00 00 00 	l.nop 0x0
    4790:	84 c1 00 00 	l.lwz r6,0x0(r1)
    4794:	e2 8b a0 02 	l.sub r20,r11,r20
    4798:	e0 c6 a0 02 	l.sub r6,r6,r20
    479c:	bd 66 00 00 	l.sfgesi r6,0x0
    47a0:	0c 00 00 2c 	l.bnf 4850 <rt_mb_send_wait+0x1e4>
    47a4:	d4 01 30 00 	l.sw 0x0(r1),r6
    47a8:	94 c2 00 3a 	l.lhz r6,0x3a(r2)
    47ac:	94 e2 00 38 	l.lhz r7,0x38(r2)
    47b0:	e4 06 38 00 	l.sfeq r6,r7
    47b4:	0c 00 00 3f 	l.bnf 48b0 <rt_mb_send_wait+0x244>
    47b8:	9c 60 00 00 	l.addi r3,r0,0x0
    47bc:	d4 0e 18 48 	l.sw 0x48(r14),r3
    47c0:	84 61 00 00 	l.lwz r3,0x0(r1)
    47c4:	bc 23 00 00 	l.sfnei r3,0x0
    47c8:	0c 00 00 53 	l.bnf 4914 <rt_mb_send_wait+0x2a8>
    47cc:	a8 76 00 00 	l.ori r3,r22,0x0
    47d0:	8e 42 00 21 	l.lbz r18,0x21(r2)
    47d4:	04 00 0f 9f 	l.jal 8650 <rt_thread_suspend>
    47d8:	a8 6e 00 00 	l.ori r3,r14,0x0
    47dc:	bc 12 00 00 	l.sfeqi r18,0x0
    47e0:	13 ff ff ca 	l.bf 4708 <_stack+0xfffdfe18>
    47e4:	bc 12 00 01 	l.sfeqi r18,0x1
    47e8:	0f ff ff ce 	l.bnf 4720 <_stack+0xfffdfe30>
    47ec:	84 61 00 00 	l.lwz r3,0x0(r1)
    47f0:	84 c2 00 40 	l.lwz r6,0x40(r2)
    47f4:	e4 10 30 00 	l.sfeq r16,r6
    47f8:	13 ff ff c4 	l.bf 4708 <_stack+0xfffdfe18>
    47fc:	9c e6 ff d4 	l.addi r7,r6,0xffffffd4
    4800:	8d 8e 00 4d 	l.lbz r12,0x4d(r14)
    4804:	8c 67 00 4d 	l.lbz r3,0x4d(r7)
    4808:	e4 43 60 00 	l.sfgtu r3,r12
    480c:	10 00 00 0a 	l.bf 4834 <rt_mb_send_wait+0x1c8>
    4810:	15 00 00 00 	l.nop 0x0
    4814:	84 c6 00 00 	l.lwz r6,0x0(r6)
    4818:	e4 30 30 00 	l.sfne r16,r6
    481c:	0f ff ff bb 	l.bnf 4708 <_stack+0xfffdfe18>
    4820:	9c e6 ff d4 	l.addi r7,r6,0xffffffd4
    4824:	8d 07 00 4d 	l.lbz r8,0x4d(r7)
    4828:	e4 a8 60 00 	l.sfleu r8,r12
    482c:	13 ff ff fa 	l.bf 4814 <_stack+0xfffdff24>
    4830:	15 00 00 00 	l.nop 0x0
    4834:	84 a7 00 30 	l.lwz r5,0x30(r7)
    4838:	9c 67 00 2c 	l.addi r3,r7,0x2c
    483c:	d4 05 c0 00 	l.sw 0x0(r5),r24
    4840:	d4 0e 28 30 	l.sw 0x30(r14),r5
    4844:	d4 07 c0 30 	l.sw 0x30(r7),r24
    4848:	03 ff ff b5 	l.j 471c <_stack+0xfffdfe2c>
    484c:	d4 0e 18 2c 	l.sw 0x2c(r14),r3
    4850:	03 ff ff d6 	l.j 47a8 <_stack+0xfffdfeb8>
    4854:	d4 01 90 00 	l.sw 0x0(r1),r18
    4858:	e0 66 38 05 	l.xor r3,r6,r7
    485c:	9c 63 ff ff 	l.addi r3,r3,0xffffffff
    4860:	bd 83 00 00 	l.sfltsi r3,0x0
    4864:	0f ff ff a4 	l.bnf 46f4 <_stack+0xfffdfe04>
    4868:	aa cb 00 00 	l.ori r22,r11,0x0
    486c:	a8 6b 00 00 	l.ori r3,r11,0x0
    4870:	04 00 12 9d 	l.jal 92e4 <rt_hw_interrupt_enable>
    4874:	9e 40 ff fd 	l.addi r18,r0,0xfffffffd
    4878:	9c 21 00 30 	l.addi r1,r1,0x30
    487c:	a9 72 00 00 	l.ori r11,r18,0x0
    4880:	85 21 ff fc 	l.lwz r9,0xfffffffc(r1)
    4884:	84 41 ff d4 	l.lwz r2,0xffffffd4(r1)
    4888:	85 c1 ff d8 	l.lwz r14,0xffffffd8(r1)
    488c:	86 01 ff dc 	l.lwz r16,0xffffffdc(r1)
    4890:	86 41 ff e0 	l.lwz r18,0xffffffe0(r1)
    4894:	86 81 ff e4 	l.lwz r20,0xffffffe4(r1)
    4898:	86 c1 ff e8 	l.lwz r22,0xffffffe8(r1)
    489c:	87 01 ff ec 	l.lwz r24,0xffffffec(r1)
    48a0:	87 41 ff f0 	l.lwz r26,0xfffffff0(r1)
    48a4:	87 81 ff f4 	l.lwz r28,0xfffffff4(r1)
    48a8:	44 00 48 00 	l.jr r9
    48ac:	87 c1 ff f8 	l.lwz r30,0xfffffff8(r1)
    48b0:	94 62 00 3c 	l.lhz r3,0x3c(r2)
    48b4:	b8 83 00 02 	l.slli r4,r3,0x2
    48b8:	84 a2 00 34 	l.lwz r5,0x34(r2)
    48bc:	9c 63 00 01 	l.addi r3,r3,0x1
    48c0:	e0 85 20 00 	l.add r4,r5,r4
    48c4:	a4 63 ff ff 	l.andi r3,r3,0xffff
    48c8:	d4 04 f0 00 	l.sw 0x0(r4),r30
    48cc:	e4 83 38 00 	l.sfltu r3,r7
    48d0:	0c 00 00 15 	l.bnf 4924 <rt_mb_send_wait+0x2b8>
    48d4:	dc 02 18 3c 	l.sh 0x3c(r2),r3
    48d8:	9c c6 00 01 	l.addi r6,r6,0x1
    48dc:	84 62 00 2c 	l.lwz r3,0x2c(r2)
    48e0:	9c 82 00 2c 	l.addi r4,r2,0x2c
    48e4:	e4 03 20 00 	l.sfeq r3,r4
    48e8:	10 00 00 12 	l.bf 4930 <rt_mb_send_wait+0x2c4>
    48ec:	dc 02 30 3a 	l.sh 0x3a(r2),r6
    48f0:	9c 63 ff d4 	l.addi r3,r3,0xffffffd4
    48f4:	04 00 0f 9e 	l.jal 876c <rt_thread_resume>
    48f8:	9e 40 00 00 	l.addi r18,r0,0x0
    48fc:	04 00 12 7a 	l.jal 92e4 <rt_hw_interrupt_enable>
    4900:	a8 76 00 00 	l.ori r3,r22,0x0
    4904:	04 00 0d 44 	l.jal 7e14 <rt_schedule>
    4908:	15 00 00 00 	l.nop 0x0
    490c:	03 ff ff dc 	l.j 487c <_stack+0xfffdff8c>
    4910:	9c 21 00 30 	l.addi r1,r1,0x30
    4914:	04 00 12 74 	l.jal 92e4 <rt_hw_interrupt_enable>
    4918:	9e 40 ff fd 	l.addi r18,r0,0xfffffffd
    491c:	03 ff ff d8 	l.j 487c <_stack+0xfffdff8c>
    4920:	9c 21 00 30 	l.addi r1,r1,0x30
    4924:	9c 60 00 00 	l.addi r3,r0,0x0
    4928:	03 ff ff ec 	l.j 48d8 <_stack+0xfffdffe8>
    492c:	dc 02 18 3c 	l.sh 0x3c(r2),r3
    4930:	a8 76 00 00 	l.ori r3,r22,0x0
    4934:	04 00 12 6c 	l.jal 92e4 <rt_hw_interrupt_enable>
    4938:	9e 40 00 00 	l.addi r18,r0,0x0
    493c:	03 ff ff d0 	l.j 487c <_stack+0xfffdff8c>
    4940:	9c 21 00 30 	l.addi r1,r1,0x30

00004944 <rt_mb_send>:
    4944:	d7 e1 4f fc 	l.sw 0xfffffffc(r1),r9
    4948:	9c 21 ff fc 	l.addi r1,r1,0xfffffffc
    494c:	9c 21 00 04 	l.addi r1,r1,0x4
    4950:	85 21 ff fc 	l.lwz r9,0xfffffffc(r1)
    4954:	03 ff ff 46 	l.j 466c <_stack+0xfffdfd7c>
    4958:	9c a0 00 00 	l.addi r5,r0,0x0

0000495c <rt_mb_recv>:
    495c:	d7 e1 17 d4 	l.sw 0xffffffd4(r1),r2
    4960:	d7 e1 77 d8 	l.sw 0xffffffd8(r1),r14
    4964:	d7 e1 f7 f8 	l.sw 0xfffffff8(r1),r30
    4968:	d7 e1 4f fc 	l.sw 0xfffffffc(r1),r9
    496c:	d7 e1 87 dc 	l.sw 0xffffffdc(r1),r16
    4970:	d7 e1 97 e0 	l.sw 0xffffffe0(r1),r18
    4974:	d7 e1 a7 e4 	l.sw 0xffffffe4(r1),r20
    4978:	d7 e1 b7 e8 	l.sw 0xffffffe8(r1),r22
    497c:	d7 e1 c7 ec 	l.sw 0xffffffec(r1),r24
    4980:	d7 e1 d7 f0 	l.sw 0xfffffff0(r1),r26
    4984:	d7 e1 e7 f4 	l.sw 0xfffffff4(r1),r28
    4988:	9c 21 ff d0 	l.addi r1,r1,0xffffffd0
    498c:	a8 43 00 00 	l.ori r2,r3,0x0
    4990:	d4 01 28 00 	l.sw 0x0(r1),r5
    4994:	04 00 0e 76 	l.jal 836c <rt_thread_self>
    4998:	ab c4 00 00 	l.ori r30,r4,0x0
    499c:	18 60 00 01 	l.movhi r3,0x1
    49a0:	a8 63 d9 5c 	l.ori r3,r3,0xd95c
    49a4:	84 a3 00 00 	l.lwz r5,0x0(r3)
    49a8:	bc 05 00 00 	l.sfeqi r5,0x0
    49ac:	10 00 00 04 	l.bf 49bc <rt_mb_recv+0x60>
    49b0:	a9 cb 00 00 	l.ori r14,r11,0x0
    49b4:	48 00 28 00 	l.jalr r5
    49b8:	a8 62 00 00 	l.ori r3,r2,0x0
    49bc:	04 00 12 3b 	l.jal 92a8 <rt_hw_interrupt_disable>
    49c0:	15 00 00 00 	l.nop 0x0
    49c4:	84 61 00 00 	l.lwz r3,0x0(r1)
    49c8:	e0 a0 18 02 	l.sub r5,r0,r3
    49cc:	e0 65 18 04 	l.or r3,r5,r3
    49d0:	bd 83 00 00 	l.sfltsi r3,0x0
    49d4:	0c 00 00 9e 	l.bnf 4c4c <rt_mb_recv+0x2f0>
    49d8:	94 c2 00 3a 	l.lhz r6,0x3a(r2)
    49dc:	aa cb 00 00 	l.ori r22,r11,0x0
    49e0:	9e 80 00 00 	l.addi r20,r0,0x0
    49e4:	9e 02 00 2c 	l.addi r16,r2,0x2c
    49e8:	9f 0e 00 2c 	l.addi r24,r14,0x2c
    49ec:	bc 06 00 00 	l.sfeqi r6,0x0
    49f0:	0c 00 00 38 	l.bnf 4ad0 <rt_mb_recv+0x174>
    49f4:	9f 4e 00 64 	l.addi r26,r14,0x64
    49f8:	84 61 00 00 	l.lwz r3,0x0(r1)
    49fc:	bc 23 00 00 	l.sfnei r3,0x0
    4a00:	0c 00 00 7f 	l.bnf 4bfc <rt_mb_recv+0x2a0>
    4a04:	d4 0e 30 48 	l.sw 0x48(r14),r6
    4a08:	8e 42 00 21 	l.lbz r18,0x21(r2)
    4a0c:	04 00 0f 11 	l.jal 8650 <rt_thread_suspend>
    4a10:	a8 6e 00 00 	l.ori r3,r14,0x0
    4a14:	bc 12 00 00 	l.sfeqi r18,0x0
    4a18:	0c 00 00 5f 	l.bnf 4b94 <rt_mb_recv+0x238>
    4a1c:	bc 12 00 01 	l.sfeqi r18,0x1
    4a20:	84 62 00 30 	l.lwz r3,0x30(r2)
    4a24:	d4 03 c0 00 	l.sw 0x0(r3),r24
    4a28:	d4 0e 18 30 	l.sw 0x30(r14),r3
    4a2c:	d4 02 c0 30 	l.sw 0x30(r2),r24
    4a30:	d4 0e 80 2c 	l.sw 0x2c(r14),r16
    4a34:	84 61 00 00 	l.lwz r3,0x0(r1)
    4a38:	bd a3 00 00 	l.sflesi r3,0x0
    4a3c:	10 00 00 0b 	l.bf 4a68 <rt_mb_recv+0x10c>
    4a40:	15 00 00 00 	l.nop 0x0
    4a44:	07 ff f8 27 	l.jal 2ae0 <_stack+0xfffde1f0>
    4a48:	15 00 00 00 	l.nop 0x0
    4a4c:	a8 7a 00 00 	l.ori r3,r26,0x0
    4a50:	9c 80 00 00 	l.addi r4,r0,0x0
    4a54:	a8 a1 00 00 	l.ori r5,r1,0x0
    4a58:	04 00 10 ef 	l.jal 8e14 <rt_timer_control>
    4a5c:	aa 8b 00 00 	l.ori r20,r11,0x0
    4a60:	04 00 10 7f 	l.jal 8c5c <rt_timer_start>
    4a64:	a8 7a 00 00 	l.ori r3,r26,0x0
    4a68:	04 00 12 1f 	l.jal 92e4 <rt_hw_interrupt_enable>
    4a6c:	a8 76 00 00 	l.ori r3,r22,0x0
    4a70:	04 00 0c e9 	l.jal 7e14 <rt_schedule>
    4a74:	15 00 00 00 	l.nop 0x0
    4a78:	86 4e 00 48 	l.lwz r18,0x48(r14)
    4a7c:	bc 32 00 00 	l.sfnei r18,0x0
    4a80:	10 00 00 34 	l.bf 4b50 <rt_mb_recv+0x1f4>
    4a84:	15 00 00 00 	l.nop 0x0
    4a88:	04 00 12 08 	l.jal 92a8 <rt_hw_interrupt_disable>
    4a8c:	15 00 00 00 	l.nop 0x0
    4a90:	84 61 00 00 	l.lwz r3,0x0(r1)
    4a94:	bd a3 00 00 	l.sflesi r3,0x0
    4a98:	10 00 00 0a 	l.bf 4ac0 <rt_mb_recv+0x164>
    4a9c:	aa cb 00 00 	l.ori r22,r11,0x0
    4aa0:	07 ff f8 10 	l.jal 2ae0 <_stack+0xfffde1f0>
    4aa4:	15 00 00 00 	l.nop 0x0
    4aa8:	84 c1 00 00 	l.lwz r6,0x0(r1)
    4aac:	e2 8b a0 02 	l.sub r20,r11,r20
    4ab0:	e0 c6 a0 02 	l.sub r6,r6,r20
    4ab4:	bd 66 00 00 	l.sfgesi r6,0x0
    4ab8:	0c 00 00 34 	l.bnf 4b88 <rt_mb_recv+0x22c>
    4abc:	d4 01 30 00 	l.sw 0x0(r1),r6
    4ac0:	94 c2 00 3a 	l.lhz r6,0x3a(r2)
    4ac4:	bc 06 00 00 	l.sfeqi r6,0x0
    4ac8:	13 ff ff cd 	l.bf 49fc <_stack+0xfffe010c>
    4acc:	84 61 00 00 	l.lwz r3,0x0(r1)
    4ad0:	94 62 00 3e 	l.lhz r3,0x3e(r2)
    4ad4:	b8 83 00 02 	l.slli r4,r3,0x2
    4ad8:	84 a2 00 34 	l.lwz r5,0x34(r2)
    4adc:	9c 63 00 01 	l.addi r3,r3,0x1
    4ae0:	e0 85 20 00 	l.add r4,r5,r4
    4ae4:	a4 63 ff ff 	l.andi r3,r3,0xffff
    4ae8:	84 a4 00 00 	l.lwz r5,0x0(r4)
    4aec:	94 82 00 38 	l.lhz r4,0x38(r2)
    4af0:	d4 1e 28 00 	l.sw 0x0(r30),r5
    4af4:	e4 44 18 00 	l.sfgtu r4,r3
    4af8:	0c 00 00 46 	l.bnf 4c10 <rt_mb_recv+0x2b4>
    4afc:	dc 02 18 3e 	l.sh 0x3e(r2),r3
    4b00:	9c c6 ff ff 	l.addi r6,r6,0xffffffff
    4b04:	84 62 00 40 	l.lwz r3,0x40(r2)
    4b08:	9c 82 00 40 	l.addi r4,r2,0x40
    4b0c:	e4 03 20 00 	l.sfeq r3,r4
    4b10:	10 00 00 43 	l.bf 4c1c <rt_mb_recv+0x2c0>
    4b14:	dc 02 30 3a 	l.sh 0x3a(r2),r6
    4b18:	04 00 0f 15 	l.jal 876c <rt_thread_resume>
    4b1c:	9c 63 ff d4 	l.addi r3,r3,0xffffffd4
    4b20:	04 00 11 f1 	l.jal 92e4 <rt_hw_interrupt_enable>
    4b24:	a8 76 00 00 	l.ori r3,r22,0x0
    4b28:	18 60 00 01 	l.movhi r3,0x1
    4b2c:	a8 63 d9 58 	l.ori r3,r3,0xd958
    4b30:	84 83 00 00 	l.lwz r4,0x0(r3)
    4b34:	bc 04 00 00 	l.sfeqi r4,0x0
    4b38:	10 00 00 04 	l.bf 4b48 <rt_mb_recv+0x1ec>
    4b3c:	15 00 00 00 	l.nop 0x0
    4b40:	48 00 20 00 	l.jalr r4
    4b44:	a8 62 00 00 	l.ori r3,r2,0x0
    4b48:	04 00 0c b3 	l.jal 7e14 <rt_schedule>
    4b4c:	9e 40 00 00 	l.addi r18,r0,0x0
    4b50:	9c 21 00 30 	l.addi r1,r1,0x30
    4b54:	a9 72 00 00 	l.ori r11,r18,0x0
    4b58:	85 21 ff fc 	l.lwz r9,0xfffffffc(r1)
    4b5c:	84 41 ff d4 	l.lwz r2,0xffffffd4(r1)
    4b60:	85 c1 ff d8 	l.lwz r14,0xffffffd8(r1)
    4b64:	86 01 ff dc 	l.lwz r16,0xffffffdc(r1)
    4b68:	86 41 ff e0 	l.lwz r18,0xffffffe0(r1)
    4b6c:	86 81 ff e4 	l.lwz r20,0xffffffe4(r1)
    4b70:	86 c1 ff e8 	l.lwz r22,0xffffffe8(r1)
    4b74:	87 01 ff ec 	l.lwz r24,0xffffffec(r1)
    4b78:	87 41 ff f0 	l.lwz r26,0xfffffff0(r1)
    4b7c:	87 81 ff f4 	l.lwz r28,0xfffffff4(r1)
    4b80:	44 00 48 00 	l.jr r9
    4b84:	87 c1 ff f8 	l.lwz r30,0xfffffff8(r1)
    4b88:	d4 01 90 00 	l.sw 0x0(r1),r18
    4b8c:	03 ff ff ce 	l.j 4ac4 <_stack+0xfffe01d4>
    4b90:	94 c2 00 3a 	l.lhz r6,0x3a(r2)
    4b94:	0f ff ff a9 	l.bnf 4a38 <_stack+0xfffe0148>
    4b98:	84 61 00 00 	l.lwz r3,0x0(r1)
    4b9c:	84 c2 00 2c 	l.lwz r6,0x2c(r2)
    4ba0:	e4 10 30 00 	l.sfeq r16,r6
    4ba4:	13 ff ff 9f 	l.bf 4a20 <_stack+0xfffe0130>
    4ba8:	9c e6 ff d4 	l.addi r7,r6,0xffffffd4
    4bac:	8d 8e 00 4d 	l.lbz r12,0x4d(r14)
    4bb0:	8c 67 00 4d 	l.lbz r3,0x4d(r7)
    4bb4:	e4 43 60 00 	l.sfgtu r3,r12
    4bb8:	10 00 00 0a 	l.bf 4be0 <rt_mb_recv+0x284>
    4bbc:	15 00 00 00 	l.nop 0x0
    4bc0:	84 c6 00 00 	l.lwz r6,0x0(r6)
    4bc4:	e4 30 30 00 	l.sfne r16,r6
    4bc8:	0f ff ff 96 	l.bnf 4a20 <_stack+0xfffe0130>
    4bcc:	9c e6 ff d4 	l.addi r7,r6,0xffffffd4
    4bd0:	8d 07 00 4d 	l.lbz r8,0x4d(r7)
    4bd4:	e4 a8 60 00 	l.sfleu r8,r12
    4bd8:	13 ff ff fa 	l.bf 4bc0 <_stack+0xfffe02d0>
    4bdc:	15 00 00 00 	l.nop 0x0
    4be0:	84 a7 00 30 	l.lwz r5,0x30(r7)
    4be4:	9c 67 00 2c 	l.addi r3,r7,0x2c
    4be8:	d4 05 c0 00 	l.sw 0x0(r5),r24
    4bec:	d4 0e 28 30 	l.sw 0x30(r14),r5
    4bf0:	d4 07 c0 30 	l.sw 0x30(r7),r24
    4bf4:	03 ff ff 90 	l.j 4a34 <_stack+0xfffe0144>
    4bf8:	d4 0e 18 2c 	l.sw 0x2c(r14),r3
    4bfc:	a8 76 00 00 	l.ori r3,r22,0x0
    4c00:	04 00 11 b9 	l.jal 92e4 <rt_hw_interrupt_enable>
    4c04:	9e 40 ff fe 	l.addi r18,r0,0xfffffffe
    4c08:	03 ff ff d2 	l.j 4b50 <_stack+0xfffe0260>
    4c0c:	d4 0e 90 48 	l.sw 0x48(r14),r18
    4c10:	9c 60 00 00 	l.addi r3,r0,0x0
    4c14:	03 ff ff bb 	l.j 4b00 <_stack+0xfffe0210>
    4c18:	dc 02 18 3e 	l.sh 0x3e(r2),r3
    4c1c:	04 00 11 b2 	l.jal 92e4 <rt_hw_interrupt_enable>
    4c20:	a8 76 00 00 	l.ori r3,r22,0x0
    4c24:	18 60 00 01 	l.movhi r3,0x1
    4c28:	a8 63 d9 58 	l.ori r3,r3,0xd958
    4c2c:	86 43 00 00 	l.lwz r18,0x0(r3)
    4c30:	bc 12 00 00 	l.sfeqi r18,0x0
    4c34:	13 ff ff c7 	l.bf 4b50 <_stack+0xfffe0260>
    4c38:	15 00 00 00 	l.nop 0x0
    4c3c:	48 00 90 00 	l.jalr r18
    4c40:	a8 62 00 00 	l.ori r3,r2,0x0
    4c44:	03 ff ff c3 	l.j 4b50 <_stack+0xfffe0260>
    4c48:	9e 40 00 00 	l.addi r18,r0,0x0
    4c4c:	9c 66 ff ff 	l.addi r3,r6,0xffffffff
    4c50:	bd 83 00 00 	l.sfltsi r3,0x0
    4c54:	0f ff ff 63 	l.bnf 49e0 <_stack+0xfffe00f0>
    4c58:	aa cb 00 00 	l.ori r22,r11,0x0
    4c5c:	a8 6b 00 00 	l.ori r3,r11,0x0
    4c60:	04 00 11 a1 	l.jal 92e4 <rt_hw_interrupt_enable>
    4c64:	9e 40 ff fe 	l.addi r18,r0,0xfffffffe
    4c68:	03 ff ff bb 	l.j 4b54 <_stack+0xfffe0264>
    4c6c:	9c 21 00 30 	l.addi r1,r1,0x30

00004c70 <rt_mb_control>:
    4c70:	d7 e1 77 ec 	l.sw 0xffffffec(r1),r14
    4c74:	d7 e1 87 f0 	l.sw 0xfffffff0(r1),r16
    4c78:	d7 e1 4f fc 	l.sw 0xfffffffc(r1),r9
    4c7c:	d7 e1 17 e8 	l.sw 0xffffffe8(r1),r2
    4c80:	d7 e1 97 f4 	l.sw 0xfffffff4(r1),r18
    4c84:	d7 e1 a7 f8 	l.sw 0xfffffff8(r1),r20
    4c88:	a4 84 00 ff 	l.andi r4,r4,0xff
    4c8c:	9c 21 ff e8 	l.addi r1,r1,0xffffffe8
    4c90:	a9 c3 00 00 	l.ori r14,r3,0x0
    4c94:	bc 24 00 01 	l.sfnei r4,0x1
    4c98:	0c 00 00 0b 	l.bnf 4cc4 <rt_mb_control+0x54>
    4c9c:	9e 00 ff ff 	l.addi r16,r0,0xffffffff
    4ca0:	9c 21 00 18 	l.addi r1,r1,0x18
    4ca4:	a9 70 00 00 	l.ori r11,r16,0x0
    4ca8:	85 21 ff fc 	l.lwz r9,0xfffffffc(r1)
    4cac:	84 41 ff e8 	l.lwz r2,0xffffffe8(r1)
    4cb0:	85 c1 ff ec 	l.lwz r14,0xffffffec(r1)
    4cb4:	86 01 ff f0 	l.lwz r16,0xfffffff0(r1)
    4cb8:	86 41 ff f4 	l.lwz r18,0xfffffff4(r1)
    4cbc:	44 00 48 00 	l.jr r9
    4cc0:	86 81 ff f8 	l.lwz r20,0xfffffff8(r1)
    4cc4:	04 00 11 79 	l.jal 92a8 <rt_hw_interrupt_disable>
    4cc8:	9c 4e 00 2c 	l.addi r2,r14,0x2c
    4ccc:	84 6e 00 2c 	l.lwz r3,0x2c(r14)
    4cd0:	e4 02 18 00 	l.sfeq r2,r3
    4cd4:	10 00 00 10 	l.bf 4d14 <rt_mb_control+0xa4>
    4cd8:	aa 8b 00 00 	l.ori r20,r11,0x0
    4cdc:	04 00 11 73 	l.jal 92a8 <rt_hw_interrupt_disable>
    4ce0:	15 00 00 00 	l.nop 0x0
    4ce4:	84 82 00 00 	l.lwz r4,0x0(r2)
    4ce8:	aa 4b 00 00 	l.ori r18,r11,0x0
    4cec:	9c 84 ff d4 	l.addi r4,r4,0xffffffd4
    4cf0:	a8 64 00 00 	l.ori r3,r4,0x0
    4cf4:	04 00 0e 9e 	l.jal 876c <rt_thread_resume>
    4cf8:	d4 04 80 48 	l.sw 0x48(r4),r16
    4cfc:	04 00 11 7a 	l.jal 92e4 <rt_hw_interrupt_enable>
    4d00:	a8 72 00 00 	l.ori r3,r18,0x0
    4d04:	84 82 00 00 	l.lwz r4,0x0(r2)
    4d08:	e4 22 20 00 	l.sfne r2,r4
    4d0c:	13 ff ff f4 	l.bf 4cdc <_stack+0xfffe03ec>
    4d10:	15 00 00 00 	l.nop 0x0
    4d14:	9c 4e 00 40 	l.addi r2,r14,0x40
    4d18:	84 6e 00 40 	l.lwz r3,0x40(r14)
    4d1c:	e4 02 18 00 	l.sfeq r2,r3
    4d20:	10 00 00 10 	l.bf 4d60 <rt_mb_control+0xf0>
    4d24:	9e 40 ff ff 	l.addi r18,r0,0xffffffff
    4d28:	04 00 11 60 	l.jal 92a8 <rt_hw_interrupt_disable>
    4d2c:	15 00 00 00 	l.nop 0x0
    4d30:	84 82 00 00 	l.lwz r4,0x0(r2)
    4d34:	aa 0b 00 00 	l.ori r16,r11,0x0
    4d38:	9c 84 ff d4 	l.addi r4,r4,0xffffffd4
    4d3c:	a8 64 00 00 	l.ori r3,r4,0x0
    4d40:	04 00 0e 8b 	l.jal 876c <rt_thread_resume>
    4d44:	d4 04 90 48 	l.sw 0x48(r4),r18
    4d48:	04 00 11 67 	l.jal 92e4 <rt_hw_interrupt_enable>
    4d4c:	a8 70 00 00 	l.ori r3,r16,0x0
    4d50:	84 82 00 00 	l.lwz r4,0x0(r2)
    4d54:	e4 22 20 00 	l.sfne r2,r4
    4d58:	13 ff ff f4 	l.bf 4d28 <_stack+0xfffe0438>
    4d5c:	15 00 00 00 	l.nop 0x0
    4d60:	9c 40 00 00 	l.addi r2,r0,0x0
    4d64:	a8 74 00 00 	l.ori r3,r20,0x0
    4d68:	dc 0e 10 3a 	l.sh 0x3a(r14),r2
    4d6c:	dc 0e 10 3c 	l.sh 0x3c(r14),r2
    4d70:	dc 0e 10 3e 	l.sh 0x3e(r14),r2
    4d74:	04 00 11 5c 	l.jal 92e4 <rt_hw_interrupt_enable>
    4d78:	9e 00 00 00 	l.addi r16,r0,0x0
    4d7c:	04 00 0c 26 	l.jal 7e14 <rt_schedule>
    4d80:	15 00 00 00 	l.nop 0x0
    4d84:	03 ff ff c8 	l.j 4ca4 <_stack+0xfffe03b4>
    4d88:	9c 21 00 18 	l.addi r1,r1,0x18

00004d8c <rt_mq_init>:
    4d8c:	d7 e1 17 e8 	l.sw 0xffffffe8(r1),r2
    4d90:	a8 44 00 00 	l.ori r2,r4,0x0
    4d94:	d7 e1 77 ec 	l.sw 0xffffffec(r1),r14
    4d98:	d7 e1 87 f0 	l.sw 0xfffffff0(r1),r16
    4d9c:	d7 e1 97 f4 	l.sw 0xfffffff4(r1),r18
    4da0:	d7 e1 a7 f8 	l.sw 0xfffffff8(r1),r20
    4da4:	d7 e1 4f fc 	l.sw 0xfffffffc(r1),r9
    4da8:	a9 c5 00 00 	l.ori r14,r5,0x0
    4dac:	9c 80 00 05 	l.addi r4,r0,0x5
    4db0:	a8 a2 00 00 	l.ori r5,r2,0x0
    4db4:	9c 21 ff e8 	l.addi r1,r1,0xffffffe8
    4db8:	aa 86 00 00 	l.ori r20,r6,0x0
    4dbc:	a8 43 00 00 	l.ori r2,r3,0x0
    4dc0:	aa 07 00 00 	l.ori r16,r7,0x0
    4dc4:	04 00 0a c9 	l.jal 78e8 <rt_object_init>
    4dc8:	a6 48 00 ff 	l.andi r18,r8,0xff
    4dcc:	9c d4 00 03 	l.addi r6,r20,0x3
    4dd0:	9c 82 00 2c 	l.addi r4,r2,0x2c
    4dd4:	a4 c6 ff fc 	l.andi r6,r6,0xfffc
    4dd8:	d4 02 20 30 	l.sw 0x30(r2),r4
    4ddc:	9c 66 00 04 	l.addi r3,r6,0x4
    4de0:	d4 02 20 2c 	l.sw 0x2c(r2),r4
    4de4:	e0 f0 1b 0a 	l.divu r7,r16,r3
    4de8:	9c 80 00 00 	l.addi r4,r0,0x0
    4dec:	a4 e7 ff ff 	l.andi r7,r7,0xffff
    4df0:	d8 02 90 21 	l.sb 0x21(r2),r18
    4df4:	d4 02 70 34 	l.sw 0x34(r2),r14
    4df8:	dc 02 30 38 	l.sh 0x38(r2),r6
    4dfc:	dc 02 38 3a 	l.sh 0x3a(r2),r7
    4e00:	d4 02 20 40 	l.sw 0x40(r2),r4
    4e04:	d4 02 20 44 	l.sw 0x44(r2),r4
    4e08:	e4 07 20 00 	l.sfeq r7,r4
    4e0c:	10 00 00 0f 	l.bf 4e48 <rt_mq_init+0xbc>
    4e10:	d4 02 20 48 	l.sw 0x48(r2),r4
    4e14:	a9 04 00 00 	l.ori r8,r4,0x0
    4e18:	a8 8e 00 00 	l.ori r4,r14,0x0
    4e1c:	a8 c8 00 00 	l.ori r6,r8,0x0
    4e20:	d4 04 40 00 	l.sw 0x0(r4),r8
    4e24:	9c c6 00 01 	l.addi r6,r6,0x1
    4e28:	a9 04 00 00 	l.ori r8,r4,0x0
    4e2c:	e5 47 30 00 	l.sfgts r7,r6
    4e30:	13 ff ff fc 	l.bf 4e20 <_stack+0xfffe0530>
    4e34:	e0 84 18 00 	l.add r4,r4,r3
    4e38:	9c e7 ff ff 	l.addi r7,r7,0xffffffff
    4e3c:	e0 67 1b 06 	l.mul r3,r7,r3
    4e40:	e1 ce 18 00 	l.add r14,r14,r3
    4e44:	d4 02 70 48 	l.sw 0x48(r2),r14
    4e48:	9c 60 00 00 	l.addi r3,r0,0x0
    4e4c:	9d 60 00 00 	l.addi r11,r0,0x0
    4e50:	dc 02 18 3c 	l.sh 0x3c(r2),r3
    4e54:	9c 21 00 18 	l.addi r1,r1,0x18
    4e58:	85 21 ff fc 	l.lwz r9,0xfffffffc(r1)
    4e5c:	84 41 ff e8 	l.lwz r2,0xffffffe8(r1)
    4e60:	85 c1 ff ec 	l.lwz r14,0xffffffec(r1)
    4e64:	86 01 ff f0 	l.lwz r16,0xfffffff0(r1)
    4e68:	86 41 ff f4 	l.lwz r18,0xfffffff4(r1)
    4e6c:	44 00 48 00 	l.jr r9
    4e70:	86 81 ff f8 	l.lwz r20,0xfffffff8(r1)

00004e74 <rt_mq_detach>:
    4e74:	d7 e1 17 ec 	l.sw 0xffffffec(r1),r2
    4e78:	d7 e1 97 f8 	l.sw 0xfffffff8(r1),r18
    4e7c:	9c 43 00 2c 	l.addi r2,r3,0x2c
    4e80:	d7 e1 4f fc 	l.sw 0xfffffffc(r1),r9
    4e84:	d7 e1 77 f0 	l.sw 0xfffffff0(r1),r14
    4e88:	d7 e1 87 f4 	l.sw 0xfffffff4(r1),r16
    4e8c:	aa 43 00 00 	l.ori r18,r3,0x0
    4e90:	84 63 00 2c 	l.lwz r3,0x2c(r3)
    4e94:	e4 02 18 00 	l.sfeq r2,r3
    4e98:	10 00 00 11 	l.bf 4edc <rt_mq_detach+0x68>
    4e9c:	9c 21 ff ec 	l.addi r1,r1,0xffffffec
    4ea0:	9e 00 ff ff 	l.addi r16,r0,0xffffffff
    4ea4:	04 00 11 01 	l.jal 92a8 <rt_hw_interrupt_disable>
    4ea8:	15 00 00 00 	l.nop 0x0
    4eac:	84 82 00 00 	l.lwz r4,0x0(r2)
    4eb0:	a9 cb 00 00 	l.ori r14,r11,0x0
    4eb4:	9c 84 ff d4 	l.addi r4,r4,0xffffffd4
    4eb8:	a8 64 00 00 	l.ori r3,r4,0x0
    4ebc:	04 00 0e 2c 	l.jal 876c <rt_thread_resume>
    4ec0:	d4 04 80 48 	l.sw 0x48(r4),r16
    4ec4:	04 00 11 08 	l.jal 92e4 <rt_hw_interrupt_enable>
    4ec8:	a8 6e 00 00 	l.ori r3,r14,0x0
    4ecc:	84 82 00 00 	l.lwz r4,0x0(r2)
    4ed0:	e4 22 20 00 	l.sfne r2,r4
    4ed4:	13 ff ff f4 	l.bf 4ea4 <_stack+0xfffe05b4>
    4ed8:	15 00 00 00 	l.nop 0x0
    4edc:	04 00 0a ac 	l.jal 798c <rt_object_detach>
    4ee0:	a8 72 00 00 	l.ori r3,r18,0x0
    4ee4:	9c 21 00 14 	l.addi r1,r1,0x14
    4ee8:	9d 60 00 00 	l.addi r11,r0,0x0
    4eec:	85 21 ff fc 	l.lwz r9,0xfffffffc(r1)
    4ef0:	84 41 ff ec 	l.lwz r2,0xffffffec(r1)
    4ef4:	85 c1 ff f0 	l.lwz r14,0xfffffff0(r1)
    4ef8:	86 01 ff f4 	l.lwz r16,0xfffffff4(r1)
    4efc:	44 00 48 00 	l.jr r9
    4f00:	86 41 ff f8 	l.lwz r18,0xfffffff8(r1)

00004f04 <rt_mq_delete>:
    4f04:	d7 e1 17 ec 	l.sw 0xffffffec(r1),r2
    4f08:	d7 e1 97 f8 	l.sw 0xfffffff8(r1),r18
    4f0c:	9c 43 00 2c 	l.addi r2,r3,0x2c
    4f10:	d7 e1 4f fc 	l.sw 0xfffffffc(r1),r9
    4f14:	d7 e1 77 f0 	l.sw 0xfffffff0(r1),r14
    4f18:	d7 e1 87 f4 	l.sw 0xfffffff4(r1),r16
    4f1c:	aa 43 00 00 	l.ori r18,r3,0x0
    4f20:	84 63 00 2c 	l.lwz r3,0x2c(r3)
    4f24:	e4 02 18 00 	l.sfeq r2,r3
    4f28:	10 00 00 11 	l.bf 4f6c <rt_mq_delete+0x68>
    4f2c:	9c 21 ff ec 	l.addi r1,r1,0xffffffec
    4f30:	9e 00 ff ff 	l.addi r16,r0,0xffffffff
    4f34:	04 00 10 dd 	l.jal 92a8 <rt_hw_interrupt_disable>
    4f38:	15 00 00 00 	l.nop 0x0
    4f3c:	84 82 00 00 	l.lwz r4,0x0(r2)
    4f40:	a9 cb 00 00 	l.ori r14,r11,0x0
    4f44:	9c 84 ff d4 	l.addi r4,r4,0xffffffd4
    4f48:	a8 64 00 00 	l.ori r3,r4,0x0
    4f4c:	04 00 0e 08 	l.jal 876c <rt_thread_resume>
    4f50:	d4 04 80 48 	l.sw 0x48(r4),r16
    4f54:	04 00 10 e4 	l.jal 92e4 <rt_hw_interrupt_enable>
    4f58:	a8 6e 00 00 	l.ori r3,r14,0x0
    4f5c:	84 82 00 00 	l.lwz r4,0x0(r2)
    4f60:	e4 22 20 00 	l.sfne r2,r4
    4f64:	13 ff ff f4 	l.bf 4f34 <_stack+0xfffe0644>
    4f68:	15 00 00 00 	l.nop 0x0
    4f6c:	04 00 08 04 	l.jal 6f7c <rt_free>
    4f70:	84 72 00 34 	l.lwz r3,0x34(r18)
    4f74:	04 00 0a da 	l.jal 7adc <rt_object_delete>
    4f78:	a8 72 00 00 	l.ori r3,r18,0x0
    4f7c:	9c 21 00 14 	l.addi r1,r1,0x14
    4f80:	9d 60 00 00 	l.addi r11,r0,0x0
    4f84:	85 21 ff fc 	l.lwz r9,0xfffffffc(r1)
    4f88:	84 41 ff ec 	l.lwz r2,0xffffffec(r1)
    4f8c:	85 c1 ff f0 	l.lwz r14,0xfffffff0(r1)
    4f90:	86 01 ff f4 	l.lwz r16,0xfffffff4(r1)
    4f94:	44 00 48 00 	l.jr r9
    4f98:	86 41 ff f8 	l.lwz r18,0xfffffff8(r1)

00004f9c <rt_mq_create>:
    4f9c:	d7 e1 17 ec 	l.sw 0xffffffec(r1),r2
    4fa0:	a8 43 00 00 	l.ori r2,r3,0x0
    4fa4:	d7 e1 77 f0 	l.sw 0xfffffff0(r1),r14
    4fa8:	d7 e1 87 f4 	l.sw 0xfffffff4(r1),r16
    4fac:	d7 e1 97 f8 	l.sw 0xfffffff8(r1),r18
    4fb0:	d7 e1 4f fc 	l.sw 0xfffffffc(r1),r9
    4fb4:	aa 44 00 00 	l.ori r18,r4,0x0
    4fb8:	9c 21 ff ec 	l.addi r1,r1,0xffffffec
    4fbc:	a8 82 00 00 	l.ori r4,r2,0x0
    4fc0:	9c 60 00 05 	l.addi r3,r0,0x5
    4fc4:	aa 05 00 00 	l.ori r16,r5,0x0
    4fc8:	04 00 0a 8b 	l.jal 79f4 <rt_object_allocate>
    4fcc:	a5 c6 00 ff 	l.andi r14,r6,0xff
    4fd0:	bc 0b 00 00 	l.sfeqi r11,0x0
    4fd4:	10 00 00 28 	l.bf 5074 <rt_mq_create+0xd8>
    4fd8:	a8 4b 00 00 	l.ori r2,r11,0x0
    4fdc:	9c 92 00 03 	l.addi r4,r18,0x3
    4fe0:	a4 b0 ff ff 	l.andi r5,r16,0xffff
    4fe4:	a4 84 ff fc 	l.andi r4,r4,0xfffc
    4fe8:	9c eb 00 2c 	l.addi r7,r11,0x2c
    4fec:	9c 64 00 04 	l.addi r3,r4,0x4
    4ff0:	d8 0b 70 21 	l.sb 0x21(r11),r14
    4ff4:	e0 63 2b 06 	l.mul r3,r3,r5
    4ff8:	d4 0b 38 30 	l.sw 0x30(r11),r7
    4ffc:	d4 0b 38 2c 	l.sw 0x2c(r11),r7
    5000:	dc 0b 20 38 	l.sh 0x38(r11),r4
    5004:	04 00 07 31 	l.jal 6cc8 <rt_malloc>
    5008:	dc 0b 28 3a 	l.sh 0x3a(r11),r5
    500c:	bc 2b 00 00 	l.sfnei r11,0x0
    5010:	0c 00 00 21 	l.bnf 5094 <rt_mq_create+0xf8>
    5014:	d4 02 58 34 	l.sw 0x34(r2),r11
    5018:	9c 60 00 00 	l.addi r3,r0,0x0
    501c:	94 c2 00 3a 	l.lhz r6,0x3a(r2)
    5020:	d4 02 18 40 	l.sw 0x40(r2),r3
    5024:	d4 02 18 44 	l.sw 0x44(r2),r3
    5028:	e4 06 18 00 	l.sfeq r6,r3
    502c:	10 00 00 10 	l.bf 506c <rt_mq_create+0xd0>
    5030:	d4 02 18 48 	l.sw 0x48(r2),r3
    5034:	94 e2 00 38 	l.lhz r7,0x38(r2)
    5038:	a8 a3 00 00 	l.ori r5,r3,0x0
    503c:	9c e7 00 04 	l.addi r7,r7,0x4
    5040:	a8 8b 00 00 	l.ori r4,r11,0x0
    5044:	d4 04 28 00 	l.sw 0x0(r4),r5
    5048:	9c 63 00 01 	l.addi r3,r3,0x1
    504c:	a8 a4 00 00 	l.ori r5,r4,0x0
    5050:	e5 46 18 00 	l.sfgts r6,r3
    5054:	13 ff ff fc 	l.bf 5044 <_stack+0xfffe0754>
    5058:	e0 84 38 00 	l.add r4,r4,r7
    505c:	9c c6 ff ff 	l.addi r6,r6,0xffffffff
    5060:	e0 e7 33 06 	l.mul r7,r7,r6
    5064:	e1 6b 38 00 	l.add r11,r11,r7
    5068:	d4 02 58 48 	l.sw 0x48(r2),r11
    506c:	9c 60 00 00 	l.addi r3,r0,0x0
    5070:	dc 02 18 3c 	l.sh 0x3c(r2),r3
    5074:	9c 21 00 14 	l.addi r1,r1,0x14
    5078:	a9 62 00 00 	l.ori r11,r2,0x0
    507c:	85 21 ff fc 	l.lwz r9,0xfffffffc(r1)
    5080:	84 41 ff ec 	l.lwz r2,0xffffffec(r1)
    5084:	85 c1 ff f0 	l.lwz r14,0xfffffff0(r1)
    5088:	86 01 ff f4 	l.lwz r16,0xfffffff4(r1)
    508c:	44 00 48 00 	l.jr r9
    5090:	86 41 ff f8 	l.lwz r18,0xfffffff8(r1)
    5094:	a8 62 00 00 	l.ori r3,r2,0x0
    5098:	07 ff ff 9b 	l.jal 4f04 <_stack+0xfffe0614>
    509c:	a8 4b 00 00 	l.ori r2,r11,0x0
    50a0:	03 ff ff f6 	l.j 5078 <_stack+0xfffe0788>
    50a4:	9c 21 00 14 	l.addi r1,r1,0x14

000050a8 <rt_mq_send>:
    50a8:	d7 e1 87 f4 	l.sw 0xfffffff4(r1),r16
    50ac:	aa 05 00 00 	l.ori r16,r5,0x0
    50b0:	94 a3 00 38 	l.lhz r5,0x38(r3)
    50b4:	d7 e1 17 ec 	l.sw 0xffffffec(r1),r2
    50b8:	d7 e1 97 f8 	l.sw 0xfffffff8(r1),r18
    50bc:	d7 e1 4f fc 	l.sw 0xfffffffc(r1),r9
    50c0:	d7 e1 77 f0 	l.sw 0xfffffff0(r1),r14
    50c4:	a8 43 00 00 	l.ori r2,r3,0x0
    50c8:	9c 21 ff ec 	l.addi r1,r1,0xffffffec
    50cc:	aa 44 00 00 	l.ori r18,r4,0x0
    50d0:	e4 85 80 00 	l.sfltu r5,r16
    50d4:	10 00 00 32 	l.bf 519c <rt_mq_send+0xf4>
    50d8:	9d 60 ff ff 	l.addi r11,r0,0xffffffff
    50dc:	18 80 00 01 	l.movhi r4,0x1
    50e0:	a8 84 d9 54 	l.ori r4,r4,0xd954
    50e4:	84 a4 00 00 	l.lwz r5,0x0(r4)
    50e8:	bc 05 00 00 	l.sfeqi r5,0x0
    50ec:	10 00 00 04 	l.bf 50fc <rt_mq_send+0x54>
    50f0:	15 00 00 00 	l.nop 0x0
    50f4:	48 00 28 00 	l.jalr r5
    50f8:	15 00 00 00 	l.nop 0x0
    50fc:	04 00 10 6b 	l.jal 92a8 <rt_hw_interrupt_disable>
    5100:	15 00 00 00 	l.nop 0x0
    5104:	85 c2 00 48 	l.lwz r14,0x48(r2)
    5108:	bc 2e 00 00 	l.sfnei r14,0x0
    510c:	0c 00 00 37 	l.bnf 51e8 <rt_mq_send+0x140>
    5110:	a8 6b 00 00 	l.ori r3,r11,0x0
    5114:	84 8e 00 00 	l.lwz r4,0x0(r14)
    5118:	04 00 10 73 	l.jal 92e4 <rt_hw_interrupt_enable>
    511c:	d4 02 20 48 	l.sw 0x48(r2),r4
    5120:	9c c0 00 00 	l.addi r6,r0,0x0
    5124:	a8 92 00 00 	l.ori r4,r18,0x0
    5128:	a8 b0 00 00 	l.ori r5,r16,0x0
    512c:	9c 6e 00 04 	l.addi r3,r14,0x4
    5130:	04 00 04 5b 	l.jal 629c <rt_memcpy>
    5134:	d4 0e 30 00 	l.sw 0x0(r14),r6
    5138:	04 00 10 5c 	l.jal 92a8 <rt_hw_interrupt_disable>
    513c:	15 00 00 00 	l.nop 0x0
    5140:	84 82 00 44 	l.lwz r4,0x44(r2)
    5144:	bc 04 00 00 	l.sfeqi r4,0x0
    5148:	10 00 00 03 	l.bf 5154 <rt_mq_send+0xac>
    514c:	aa 0b 00 00 	l.ori r16,r11,0x0
    5150:	d4 04 70 00 	l.sw 0x0(r4),r14
    5154:	84 62 00 40 	l.lwz r3,0x40(r2)
    5158:	bc 23 00 00 	l.sfnei r3,0x0
    515c:	0c 00 00 21 	l.bnf 51e0 <rt_mq_send+0x138>
    5160:	d4 02 70 44 	l.sw 0x44(r2),r14
    5164:	94 a2 00 3c 	l.lhz r5,0x3c(r2)
    5168:	9c a5 00 01 	l.addi r5,r5,0x1
    516c:	84 82 00 2c 	l.lwz r4,0x2c(r2)
    5170:	9c 62 00 2c 	l.addi r3,r2,0x2c
    5174:	e4 04 18 00 	l.sfeq r4,r3
    5178:	10 00 00 10 	l.bf 51b8 <rt_mq_send+0x110>
    517c:	dc 02 28 3c 	l.sh 0x3c(r2),r5
    5180:	04 00 0d 7b 	l.jal 876c <rt_thread_resume>
    5184:	9c 64 ff d4 	l.addi r3,r4,0xffffffd4
    5188:	04 00 10 57 	l.jal 92e4 <rt_hw_interrupt_enable>
    518c:	a8 70 00 00 	l.ori r3,r16,0x0
    5190:	04 00 0b 21 	l.jal 7e14 <rt_schedule>
    5194:	15 00 00 00 	l.nop 0x0
    5198:	9d 60 00 00 	l.addi r11,r0,0x0
    519c:	9c 21 00 14 	l.addi r1,r1,0x14
    51a0:	85 21 ff fc 	l.lwz r9,0xfffffffc(r1)
    51a4:	84 41 ff ec 	l.lwz r2,0xffffffec(r1)
    51a8:	85 c1 ff f0 	l.lwz r14,0xfffffff0(r1)
    51ac:	86 01 ff f4 	l.lwz r16,0xfffffff4(r1)
    51b0:	44 00 48 00 	l.jr r9
    51b4:	86 41 ff f8 	l.lwz r18,0xfffffff8(r1)
    51b8:	04 00 10 4b 	l.jal 92e4 <rt_hw_interrupt_enable>
    51bc:	a8 70 00 00 	l.ori r3,r16,0x0
    51c0:	9c 21 00 14 	l.addi r1,r1,0x14
    51c4:	9d 60 00 00 	l.addi r11,r0,0x0
    51c8:	85 21 ff fc 	l.lwz r9,0xfffffffc(r1)
    51cc:	84 41 ff ec 	l.lwz r2,0xffffffec(r1)
    51d0:	85 c1 ff f0 	l.lwz r14,0xfffffff0(r1)
    51d4:	86 01 ff f4 	l.lwz r16,0xfffffff4(r1)
    51d8:	44 00 48 00 	l.jr r9
    51dc:	86 41 ff f8 	l.lwz r18,0xfffffff8(r1)
    51e0:	03 ff ff e1 	l.j 5164 <_stack+0xfffe0874>
    51e4:	d4 02 70 40 	l.sw 0x40(r2),r14
    51e8:	04 00 10 3f 	l.jal 92e4 <rt_hw_interrupt_enable>
    51ec:	a8 6b 00 00 	l.ori r3,r11,0x0
    51f0:	03 ff ff eb 	l.j 519c <_stack+0xfffe08ac>
    51f4:	9d 60 ff fd 	l.addi r11,r0,0xfffffffd

000051f8 <rt_mq_urgent>:
    51f8:	d7 e1 87 f4 	l.sw 0xfffffff4(r1),r16
    51fc:	aa 05 00 00 	l.ori r16,r5,0x0
    5200:	94 a3 00 38 	l.lhz r5,0x38(r3)
    5204:	d7 e1 17 ec 	l.sw 0xffffffec(r1),r2
    5208:	d7 e1 97 f8 	l.sw 0xfffffff8(r1),r18
    520c:	d7 e1 4f fc 	l.sw 0xfffffffc(r1),r9
    5210:	d7 e1 77 f0 	l.sw 0xfffffff0(r1),r14
    5214:	a8 43 00 00 	l.ori r2,r3,0x0
    5218:	9c 21 ff ec 	l.addi r1,r1,0xffffffec
    521c:	aa 44 00 00 	l.ori r18,r4,0x0
    5220:	e4 85 80 00 	l.sfltu r5,r16
    5224:	10 00 00 2e 	l.bf 52dc <rt_mq_urgent+0xe4>
    5228:	9d 60 ff ff 	l.addi r11,r0,0xffffffff
    522c:	18 80 00 01 	l.movhi r4,0x1
    5230:	a8 84 d9 54 	l.ori r4,r4,0xd954
    5234:	84 a4 00 00 	l.lwz r5,0x0(r4)
    5238:	bc 05 00 00 	l.sfeqi r5,0x0
    523c:	10 00 00 04 	l.bf 524c <rt_mq_urgent+0x54>
    5240:	15 00 00 00 	l.nop 0x0
    5244:	48 00 28 00 	l.jalr r5
    5248:	15 00 00 00 	l.nop 0x0
    524c:	04 00 10 17 	l.jal 92a8 <rt_hw_interrupt_disable>
    5250:	15 00 00 00 	l.nop 0x0
    5254:	85 c2 00 48 	l.lwz r14,0x48(r2)
    5258:	bc 2e 00 00 	l.sfnei r14,0x0
    525c:	0c 00 00 33 	l.bnf 5328 <rt_mq_urgent+0x130>
    5260:	a8 6b 00 00 	l.ori r3,r11,0x0
    5264:	84 8e 00 00 	l.lwz r4,0x0(r14)
    5268:	04 00 10 1f 	l.jal 92e4 <rt_hw_interrupt_enable>
    526c:	d4 02 20 48 	l.sw 0x48(r2),r4
    5270:	9c 6e 00 04 	l.addi r3,r14,0x4
    5274:	a8 92 00 00 	l.ori r4,r18,0x0
    5278:	04 00 04 09 	l.jal 629c <rt_memcpy>
    527c:	a8 b0 00 00 	l.ori r5,r16,0x0
    5280:	04 00 10 0a 	l.jal 92a8 <rt_hw_interrupt_disable>
    5284:	15 00 00 00 	l.nop 0x0
    5288:	84 82 00 40 	l.lwz r4,0x40(r2)
    528c:	84 62 00 44 	l.lwz r3,0x44(r2)
    5290:	d4 0e 20 00 	l.sw 0x0(r14),r4
    5294:	d4 02 70 40 	l.sw 0x40(r2),r14
    5298:	bc 23 00 00 	l.sfnei r3,0x0
    529c:	0c 00 00 21 	l.bnf 5320 <rt_mq_urgent+0x128>
    52a0:	aa 0b 00 00 	l.ori r16,r11,0x0
    52a4:	94 a2 00 3c 	l.lhz r5,0x3c(r2)
    52a8:	9c a5 00 01 	l.addi r5,r5,0x1
    52ac:	84 82 00 2c 	l.lwz r4,0x2c(r2)
    52b0:	9c 62 00 2c 	l.addi r3,r2,0x2c
    52b4:	e4 04 18 00 	l.sfeq r4,r3
    52b8:	10 00 00 10 	l.bf 52f8 <rt_mq_urgent+0x100>
    52bc:	dc 02 28 3c 	l.sh 0x3c(r2),r5
    52c0:	04 00 0d 2b 	l.jal 876c <rt_thread_resume>
    52c4:	9c 64 ff d4 	l.addi r3,r4,0xffffffd4
    52c8:	04 00 10 07 	l.jal 92e4 <rt_hw_interrupt_enable>
    52cc:	a8 70 00 00 	l.ori r3,r16,0x0
    52d0:	04 00 0a d1 	l.jal 7e14 <rt_schedule>
    52d4:	15 00 00 00 	l.nop 0x0
    52d8:	9d 60 00 00 	l.addi r11,r0,0x0
    52dc:	9c 21 00 14 	l.addi r1,r1,0x14
    52e0:	85 21 ff fc 	l.lwz r9,0xfffffffc(r1)
    52e4:	84 41 ff ec 	l.lwz r2,0xffffffec(r1)
    52e8:	85 c1 ff f0 	l.lwz r14,0xfffffff0(r1)
    52ec:	86 01 ff f4 	l.lwz r16,0xfffffff4(r1)
    52f0:	44 00 48 00 	l.jr r9
    52f4:	86 41 ff f8 	l.lwz r18,0xfffffff8(r1)
    52f8:	04 00 0f fb 	l.jal 92e4 <rt_hw_interrupt_enable>
    52fc:	a8 70 00 00 	l.ori r3,r16,0x0
    5300:	9c 21 00 14 	l.addi r1,r1,0x14
    5304:	9d 60 00 00 	l.addi r11,r0,0x0
    5308:	85 21 ff fc 	l.lwz r9,0xfffffffc(r1)
    530c:	84 41 ff ec 	l.lwz r2,0xffffffec(r1)
    5310:	85 c1 ff f0 	l.lwz r14,0xfffffff0(r1)
    5314:	86 01 ff f4 	l.lwz r16,0xfffffff4(r1)
    5318:	44 00 48 00 	l.jr r9
    531c:	86 41 ff f8 	l.lwz r18,0xfffffff8(r1)
    5320:	03 ff ff e1 	l.j 52a4 <_stack+0xfffe09b4>
    5324:	d4 02 70 44 	l.sw 0x44(r2),r14
    5328:	04 00 0f ef 	l.jal 92e4 <rt_hw_interrupt_enable>
    532c:	a8 6b 00 00 	l.ori r3,r11,0x0
    5330:	03 ff ff eb 	l.j 52dc <_stack+0xfffe09ec>
    5334:	9d 60 ff fd 	l.addi r11,r0,0xfffffffd

00005338 <rt_mq_recv>:
    5338:	d7 e1 17 d4 	l.sw 0xffffffd4(r1),r2
    533c:	d7 e1 77 d8 	l.sw 0xffffffd8(r1),r14
    5340:	d7 e1 f7 f8 	l.sw 0xfffffff8(r1),r30
    5344:	d7 e1 4f fc 	l.sw 0xfffffffc(r1),r9
    5348:	d7 e1 87 dc 	l.sw 0xffffffdc(r1),r16
    534c:	d7 e1 97 e0 	l.sw 0xffffffe0(r1),r18
    5350:	d7 e1 a7 e4 	l.sw 0xffffffe4(r1),r20
    5354:	d7 e1 b7 e8 	l.sw 0xffffffe8(r1),r22
    5358:	d7 e1 c7 ec 	l.sw 0xffffffec(r1),r24
    535c:	d7 e1 d7 f0 	l.sw 0xfffffff0(r1),r26
    5360:	d7 e1 e7 f4 	l.sw 0xfffffff4(r1),r28
    5364:	9c 21 ff cc 	l.addi r1,r1,0xffffffcc
    5368:	a8 43 00 00 	l.ori r2,r3,0x0
    536c:	d4 01 30 04 	l.sw 0x4(r1),r6
    5370:	ab c4 00 00 	l.ori r30,r4,0x0
    5374:	04 00 0b fe 	l.jal 836c <rt_thread_self>
    5378:	d4 01 28 00 	l.sw 0x0(r1),r5
    537c:	18 c0 00 01 	l.movhi r6,0x1
    5380:	a8 c6 d9 5c 	l.ori r6,r6,0xd95c
    5384:	84 c6 00 00 	l.lwz r6,0x0(r6)
    5388:	bc 06 00 00 	l.sfeqi r6,0x0
    538c:	10 00 00 04 	l.bf 539c <rt_mq_recv+0x64>
    5390:	a9 cb 00 00 	l.ori r14,r11,0x0
    5394:	48 00 30 00 	l.jalr r6
    5398:	a8 62 00 00 	l.ori r3,r2,0x0
    539c:	04 00 0f c3 	l.jal 92a8 <rt_hw_interrupt_disable>
    53a0:	15 00 00 00 	l.nop 0x0
    53a4:	84 e1 00 04 	l.lwz r7,0x4(r1)
    53a8:	e1 00 38 02 	l.sub r8,r0,r7
    53ac:	e0 e8 38 04 	l.or r7,r8,r7
    53b0:	bd 87 00 00 	l.sfltsi r7,0x0
    53b4:	0c 00 00 97 	l.bnf 5610 <rt_mq_recv+0x2d8>
    53b8:	94 c2 00 3c 	l.lhz r6,0x3c(r2)
    53bc:	aa cb 00 00 	l.ori r22,r11,0x0
    53c0:	9e 80 00 00 	l.addi r20,r0,0x0
    53c4:	9e 02 00 2c 	l.addi r16,r2,0x2c
    53c8:	9f 0e 00 2c 	l.addi r24,r14,0x2c
    53cc:	9f 4e 00 64 	l.addi r26,r14,0x64
    53d0:	bc 06 00 00 	l.sfeqi r6,0x0
    53d4:	0c 00 00 39 	l.bnf 54b8 <rt_mq_recv+0x180>
    53d8:	9f 81 00 04 	l.addi r28,r1,0x4
    53dc:	d4 0e 30 48 	l.sw 0x48(r14),r6
    53e0:	84 c1 00 04 	l.lwz r6,0x4(r1)
    53e4:	bc 26 00 00 	l.sfnei r6,0x0
    53e8:	0c 00 00 81 	l.bnf 55ec <rt_mq_recv+0x2b4>
    53ec:	a8 76 00 00 	l.ori r3,r22,0x0
    53f0:	8e 42 00 21 	l.lbz r18,0x21(r2)
    53f4:	04 00 0c 97 	l.jal 8650 <rt_thread_suspend>
    53f8:	a8 6e 00 00 	l.ori r3,r14,0x0
    53fc:	bc 12 00 00 	l.sfeqi r18,0x0
    5400:	0c 00 00 61 	l.bnf 5584 <rt_mq_recv+0x24c>
    5404:	bc 12 00 01 	l.sfeqi r18,0x1
    5408:	84 c2 00 30 	l.lwz r6,0x30(r2)
    540c:	d4 06 c0 00 	l.sw 0x0(r6),r24
    5410:	d4 0e 30 30 	l.sw 0x30(r14),r6
    5414:	d4 02 c0 30 	l.sw 0x30(r2),r24
    5418:	d4 0e 80 2c 	l.sw 0x2c(r14),r16
    541c:	84 c1 00 04 	l.lwz r6,0x4(r1)
    5420:	bd a6 00 00 	l.sflesi r6,0x0
    5424:	10 00 00 0b 	l.bf 5450 <rt_mq_recv+0x118>
    5428:	15 00 00 00 	l.nop 0x0
    542c:	07 ff f5 ad 	l.jal 2ae0 <_stack+0xfffde1f0>
    5430:	15 00 00 00 	l.nop 0x0
    5434:	a8 7a 00 00 	l.ori r3,r26,0x0
    5438:	9c 80 00 00 	l.addi r4,r0,0x0
    543c:	a8 bc 00 00 	l.ori r5,r28,0x0
    5440:	04 00 0e 75 	l.jal 8e14 <rt_timer_control>
    5444:	aa 8b 00 00 	l.ori r20,r11,0x0
    5448:	04 00 0e 05 	l.jal 8c5c <rt_timer_start>
    544c:	a8 7a 00 00 	l.ori r3,r26,0x0
    5450:	04 00 0f a5 	l.jal 92e4 <rt_hw_interrupt_enable>
    5454:	a8 76 00 00 	l.ori r3,r22,0x0
    5458:	04 00 0a 6f 	l.jal 7e14 <rt_schedule>
    545c:	15 00 00 00 	l.nop 0x0
    5460:	86 4e 00 48 	l.lwz r18,0x48(r14)
    5464:	bc 32 00 00 	l.sfnei r18,0x0
    5468:	10 00 00 36 	l.bf 5540 <rt_mq_recv+0x208>
    546c:	15 00 00 00 	l.nop 0x0
    5470:	04 00 0f 8e 	l.jal 92a8 <rt_hw_interrupt_disable>
    5474:	15 00 00 00 	l.nop 0x0
    5478:	84 c1 00 04 	l.lwz r6,0x4(r1)
    547c:	bd a6 00 00 	l.sflesi r6,0x0
    5480:	10 00 00 0a 	l.bf 54a8 <rt_mq_recv+0x170>
    5484:	aa cb 00 00 	l.ori r22,r11,0x0
    5488:	07 ff f5 96 	l.jal 2ae0 <_stack+0xfffde1f0>
    548c:	15 00 00 00 	l.nop 0x0
    5490:	84 c1 00 04 	l.lwz r6,0x4(r1)
    5494:	e2 8b a0 02 	l.sub r20,r11,r20
    5498:	e0 c6 a0 02 	l.sub r6,r6,r20
    549c:	bd 66 00 00 	l.sfgesi r6,0x0
    54a0:	0c 00 00 36 	l.bnf 5578 <rt_mq_recv+0x240>
    54a4:	d4 01 30 04 	l.sw 0x4(r1),r6
    54a8:	94 c2 00 3c 	l.lhz r6,0x3c(r2)
    54ac:	bc 06 00 00 	l.sfeqi r6,0x0
    54b0:	13 ff ff cb 	l.bf 53dc <_stack+0xfffe0aec>
    54b4:	15 00 00 00 	l.nop 0x0
    54b8:	85 c2 00 40 	l.lwz r14,0x40(r2)
    54bc:	84 82 00 44 	l.lwz r4,0x44(r2)
    54c0:	84 6e 00 00 	l.lwz r3,0x0(r14)
    54c4:	e4 24 70 00 	l.sfne r4,r14
    54c8:	0c 00 00 4f 	l.bnf 5604 <rt_mq_recv+0x2cc>
    54cc:	d4 02 18 40 	l.sw 0x40(r2),r3
    54d0:	9c c6 ff ff 	l.addi r6,r6,0xffffffff
    54d4:	a8 76 00 00 	l.ori r3,r22,0x0
    54d8:	04 00 0f 83 	l.jal 92e4 <rt_hw_interrupt_enable>
    54dc:	dc 02 30 3c 	l.sh 0x3c(r2),r6
    54e0:	94 62 00 38 	l.lhz r3,0x38(r2)
    54e4:	84 a1 00 00 	l.lwz r5,0x0(r1)
    54e8:	e4 a5 18 00 	l.sfleu r5,r3
    54ec:	0c 00 00 44 	l.bnf 55fc <rt_mq_recv+0x2c4>
    54f0:	9c ce 00 04 	l.addi r6,r14,0x4
    54f4:	a8 86 00 00 	l.ori r4,r6,0x0
    54f8:	04 00 03 69 	l.jal 629c <rt_memcpy>
    54fc:	a8 7e 00 00 	l.ori r3,r30,0x0
    5500:	04 00 0f 6a 	l.jal 92a8 <rt_hw_interrupt_disable>
    5504:	15 00 00 00 	l.nop 0x0
    5508:	84 82 00 48 	l.lwz r4,0x48(r2)
    550c:	a8 6b 00 00 	l.ori r3,r11,0x0
    5510:	d4 0e 20 00 	l.sw 0x0(r14),r4
    5514:	04 00 0f 74 	l.jal 92e4 <rt_hw_interrupt_enable>
    5518:	d4 02 70 48 	l.sw 0x48(r2),r14
    551c:	18 60 00 01 	l.movhi r3,0x1
    5520:	a8 63 d9 58 	l.ori r3,r3,0xd958
    5524:	86 43 00 00 	l.lwz r18,0x0(r3)
    5528:	bc 12 00 00 	l.sfeqi r18,0x0
    552c:	10 00 00 05 	l.bf 5540 <rt_mq_recv+0x208>
    5530:	15 00 00 00 	l.nop 0x0
    5534:	48 00 90 00 	l.jalr r18
    5538:	a8 62 00 00 	l.ori r3,r2,0x0
    553c:	9e 40 00 00 	l.addi r18,r0,0x0
    5540:	9c 21 00 34 	l.addi r1,r1,0x34
    5544:	a9 72 00 00 	l.ori r11,r18,0x0
    5548:	85 21 ff fc 	l.lwz r9,0xfffffffc(r1)
    554c:	84 41 ff d4 	l.lwz r2,0xffffffd4(r1)
    5550:	85 c1 ff d8 	l.lwz r14,0xffffffd8(r1)
    5554:	86 01 ff dc 	l.lwz r16,0xffffffdc(r1)
    5558:	86 41 ff e0 	l.lwz r18,0xffffffe0(r1)
    555c:	86 81 ff e4 	l.lwz r20,0xffffffe4(r1)
    5560:	86 c1 ff e8 	l.lwz r22,0xffffffe8(r1)
    5564:	87 01 ff ec 	l.lwz r24,0xffffffec(r1)
    5568:	87 41 ff f0 	l.lwz r26,0xfffffff0(r1)
    556c:	87 81 ff f4 	l.lwz r28,0xfffffff4(r1)
    5570:	44 00 48 00 	l.jr r9
    5574:	87 c1 ff f8 	l.lwz r30,0xfffffff8(r1)
    5578:	d4 01 90 04 	l.sw 0x4(r1),r18
    557c:	03 ff ff cc 	l.j 54ac <_stack+0xfffe0bbc>
    5580:	94 c2 00 3c 	l.lhz r6,0x3c(r2)
    5584:	0f ff ff a7 	l.bnf 5420 <_stack+0xfffe0b30>
    5588:	84 c1 00 04 	l.lwz r6,0x4(r1)
    558c:	84 c2 00 2c 	l.lwz r6,0x2c(r2)
    5590:	e4 10 30 00 	l.sfeq r16,r6
    5594:	13 ff ff 9d 	l.bf 5408 <_stack+0xfffe0b18>
    5598:	9c e6 ff d4 	l.addi r7,r6,0xffffffd4
    559c:	8d 8e 00 4d 	l.lbz r12,0x4d(r14)
    55a0:	8d 07 00 4d 	l.lbz r8,0x4d(r7)
    55a4:	e4 48 60 00 	l.sfgtu r8,r12
    55a8:	10 00 00 0a 	l.bf 55d0 <rt_mq_recv+0x298>
    55ac:	15 00 00 00 	l.nop 0x0
    55b0:	84 c6 00 00 	l.lwz r6,0x0(r6)
    55b4:	e4 30 30 00 	l.sfne r16,r6
    55b8:	0f ff ff 94 	l.bnf 5408 <_stack+0xfffe0b18>
    55bc:	9c e6 ff d4 	l.addi r7,r6,0xffffffd4
    55c0:	8d 07 00 4d 	l.lbz r8,0x4d(r7)
    55c4:	e4 a8 60 00 	l.sfleu r8,r12
    55c8:	13 ff ff fa 	l.bf 55b0 <_stack+0xfffe0cc0>
    55cc:	15 00 00 00 	l.nop 0x0
    55d0:	85 07 00 30 	l.lwz r8,0x30(r7)
    55d4:	9c c7 00 2c 	l.addi r6,r7,0x2c
    55d8:	d4 08 c0 00 	l.sw 0x0(r8),r24
    55dc:	d4 0e 40 30 	l.sw 0x30(r14),r8
    55e0:	d4 07 c0 30 	l.sw 0x30(r7),r24
    55e4:	03 ff ff 8e 	l.j 541c <_stack+0xfffe0b2c>
    55e8:	d4 0e 30 2c 	l.sw 0x2c(r14),r6
    55ec:	04 00 0f 3e 	l.jal 92e4 <rt_hw_interrupt_enable>
    55f0:	9e 40 ff fe 	l.addi r18,r0,0xfffffffe
    55f4:	03 ff ff d3 	l.j 5540 <_stack+0xfffe0c50>
    55f8:	d4 0e 90 48 	l.sw 0x48(r14),r18
    55fc:	03 ff ff be 	l.j 54f4 <_stack+0xfffe0c04>
    5600:	a8 a3 00 00 	l.ori r5,r3,0x0
    5604:	9c 60 00 00 	l.addi r3,r0,0x0
    5608:	03 ff ff b2 	l.j 54d0 <_stack+0xfffe0be0>
    560c:	d4 02 18 44 	l.sw 0x44(r2),r3
    5610:	9c 66 ff ff 	l.addi r3,r6,0xffffffff
    5614:	bd 83 00 00 	l.sfltsi r3,0x0
    5618:	0f ff ff 6a 	l.bnf 53c0 <_stack+0xfffe0ad0>
    561c:	aa cb 00 00 	l.ori r22,r11,0x0
    5620:	a8 6b 00 00 	l.ori r3,r11,0x0
    5624:	04 00 0f 30 	l.jal 92e4 <rt_hw_interrupt_enable>
    5628:	9e 40 ff fe 	l.addi r18,r0,0xfffffffe
    562c:	03 ff ff c6 	l.j 5544 <_stack+0xfffe0c54>
    5630:	9c 21 00 34 	l.addi r1,r1,0x34

00005634 <rt_mq_control>:
    5634:	d7 e1 77 ec 	l.sw 0xffffffec(r1),r14
    5638:	d7 e1 87 f0 	l.sw 0xfffffff0(r1),r16
    563c:	d7 e1 4f fc 	l.sw 0xfffffffc(r1),r9
    5640:	d7 e1 17 e8 	l.sw 0xffffffe8(r1),r2
    5644:	d7 e1 97 f4 	l.sw 0xfffffff4(r1),r18
    5648:	d7 e1 a7 f8 	l.sw 0xfffffff8(r1),r20
    564c:	a4 84 00 ff 	l.andi r4,r4,0xff
    5650:	9c 21 ff e8 	l.addi r1,r1,0xffffffe8
    5654:	a9 c3 00 00 	l.ori r14,r3,0x0
    5658:	bc 24 00 01 	l.sfnei r4,0x1
    565c:	0c 00 00 0b 	l.bnf 5688 <rt_mq_control+0x54>
    5660:	9e 00 ff ff 	l.addi r16,r0,0xffffffff
    5664:	9c 21 00 18 	l.addi r1,r1,0x18
    5668:	a9 70 00 00 	l.ori r11,r16,0x0
    566c:	85 21 ff fc 	l.lwz r9,0xfffffffc(r1)
    5670:	84 41 ff e8 	l.lwz r2,0xffffffe8(r1)
    5674:	85 c1 ff ec 	l.lwz r14,0xffffffec(r1)
    5678:	86 01 ff f0 	l.lwz r16,0xfffffff0(r1)
    567c:	86 41 ff f4 	l.lwz r18,0xfffffff4(r1)
    5680:	44 00 48 00 	l.jr r9
    5684:	86 81 ff f8 	l.lwz r20,0xfffffff8(r1)
    5688:	04 00 0f 08 	l.jal 92a8 <rt_hw_interrupt_disable>
    568c:	9c 4e 00 2c 	l.addi r2,r14,0x2c
    5690:	84 6e 00 2c 	l.lwz r3,0x2c(r14)
    5694:	e4 02 18 00 	l.sfeq r2,r3
    5698:	10 00 00 10 	l.bf 56d8 <rt_mq_control+0xa4>
    569c:	aa 8b 00 00 	l.ori r20,r11,0x0
    56a0:	04 00 0f 02 	l.jal 92a8 <rt_hw_interrupt_disable>
    56a4:	15 00 00 00 	l.nop 0x0
    56a8:	84 82 00 00 	l.lwz r4,0x0(r2)
    56ac:	aa 4b 00 00 	l.ori r18,r11,0x0
    56b0:	9c 84 ff d4 	l.addi r4,r4,0xffffffd4
    56b4:	a8 64 00 00 	l.ori r3,r4,0x0
    56b8:	04 00 0c 2d 	l.jal 876c <rt_thread_resume>
    56bc:	d4 04 80 48 	l.sw 0x48(r4),r16
    56c0:	04 00 0f 09 	l.jal 92e4 <rt_hw_interrupt_enable>
    56c4:	a8 72 00 00 	l.ori r3,r18,0x0
    56c8:	84 82 00 00 	l.lwz r4,0x0(r2)
    56cc:	e4 22 20 00 	l.sfne r2,r4
    56d0:	13 ff ff f4 	l.bf 56a0 <_stack+0xfffe0db0>
    56d4:	15 00 00 00 	l.nop 0x0
    56d8:	84 8e 00 40 	l.lwz r4,0x40(r14)
    56dc:	bc 04 00 00 	l.sfeqi r4,0x0
    56e0:	10 00 00 16 	l.bf 5738 <rt_mq_control+0x104>
    56e4:	9c 40 00 00 	l.addi r2,r0,0x0
    56e8:	00 00 00 07 	l.j 5704 <rt_mq_control+0xd0>
    56ec:	84 ae 00 48 	l.lwz r5,0x48(r14)
    56f0:	d4 04 28 00 	l.sw 0x0(r4),r5
    56f4:	bc 22 00 00 	l.sfnei r2,0x0
    56f8:	0c 00 00 0d 	l.bnf 572c <rt_mq_control+0xf8>
    56fc:	a8 a4 00 00 	l.ori r5,r4,0x0
    5700:	a8 82 00 00 	l.ori r4,r2,0x0
    5704:	84 ce 00 44 	l.lwz r6,0x44(r14)
    5708:	e4 26 20 00 	l.sfne r6,r4
    570c:	13 ff ff f9 	l.bf 56f0 <_stack+0xfffe0e00>
    5710:	84 44 00 00 	l.lwz r2,0x0(r4)
    5714:	9c 60 00 00 	l.addi r3,r0,0x0
    5718:	bc 22 00 00 	l.sfnei r2,0x0
    571c:	d4 0e 18 44 	l.sw 0x44(r14),r3
    5720:	d4 04 28 00 	l.sw 0x0(r4),r5
    5724:	13 ff ff f7 	l.bf 5700 <_stack+0xfffe0e10>
    5728:	a8 a4 00 00 	l.ori r5,r4,0x0
    572c:	d4 0e 10 40 	l.sw 0x40(r14),r2
    5730:	d4 0e 20 48 	l.sw 0x48(r14),r4
    5734:	9c 40 00 00 	l.addi r2,r0,0x0
    5738:	a8 74 00 00 	l.ori r3,r20,0x0
    573c:	dc 0e 10 3c 	l.sh 0x3c(r14),r2
    5740:	04 00 0e e9 	l.jal 92e4 <rt_hw_interrupt_enable>
    5744:	9e 00 00 00 	l.addi r16,r0,0x0
    5748:	04 00 09 b3 	l.jal 7e14 <rt_schedule>
    574c:	15 00 00 00 	l.nop 0x0
    5750:	03 ff ff c6 	l.j 5668 <_stack+0xfffe0d78>
    5754:	9c 21 00 18 	l.addi r1,r1,0x18

00005758 <rt_interrupt_enter>:
    5758:	d7 e1 4f fc 	l.sw 0xfffffffc(r1),r9
    575c:	04 00 0e d3 	l.jal 92a8 <rt_hw_interrupt_disable>
    5760:	9c 21 ff fc 	l.addi r1,r1,0xfffffffc
    5764:	18 80 00 01 	l.movhi r4,0x1
    5768:	a8 6b 00 00 	l.ori r3,r11,0x0
    576c:	a8 84 d9 50 	l.ori r4,r4,0xd950
    5770:	8c a4 00 00 	l.lbz r5,0x0(r4)
    5774:	9c a5 00 01 	l.addi r5,r5,0x1
    5778:	a4 a5 00 ff 	l.andi r5,r5,0xff
    577c:	d8 04 28 00 	l.sb 0x0(r4),r5
    5780:	9c 21 00 04 	l.addi r1,r1,0x4
    5784:	85 21 ff fc 	l.lwz r9,0xfffffffc(r1)
    5788:	00 00 0e d7 	l.j 92e4 <rt_hw_interrupt_enable>
    578c:	15 00 00 00 	l.nop 0x0

00005790 <rt_interrupt_leave>:
    5790:	d7 e1 4f fc 	l.sw 0xfffffffc(r1),r9
    5794:	04 00 0e c5 	l.jal 92a8 <rt_hw_interrupt_disable>
    5798:	9c 21 ff fc 	l.addi r1,r1,0xfffffffc
    579c:	18 80 00 01 	l.movhi r4,0x1
    57a0:	a8 6b 00 00 	l.ori r3,r11,0x0
    57a4:	a8 84 d9 50 	l.ori r4,r4,0xd950
    57a8:	8c a4 00 00 	l.lbz r5,0x0(r4)
    57ac:	9c a5 ff ff 	l.addi r5,r5,0xffffffff
    57b0:	a4 a5 00 ff 	l.andi r5,r5,0xff
    57b4:	d8 04 28 00 	l.sb 0x0(r4),r5
    57b8:	9c 21 00 04 	l.addi r1,r1,0x4
    57bc:	85 21 ff fc 	l.lwz r9,0xfffffffc(r1)
    57c0:	00 00 0e c9 	l.j 92e4 <rt_hw_interrupt_enable>
    57c4:	15 00 00 00 	l.nop 0x0

000057c8 <rt_interrupt_get_nest>:
    57c8:	18 60 00 01 	l.movhi r3,0x1
    57cc:	a8 63 d9 50 	l.ori r3,r3,0xd950
    57d0:	8d 63 00 00 	l.lbz r11,0x0(r3)
    57d4:	44 00 48 00 	l.jr r9
    57d8:	15 00 00 00 	l.nop 0x0

000057dc <print_number>:
    57dc:	d7 e1 17 fc 	l.sw 0xfffffffc(r1),r2
    57e0:	9c 21 ff ec 	l.addi r1,r1,0xffffffec
    57e4:	1a 20 00 01 	l.movhi r17,0x1
    57e8:	85 e1 00 14 	l.lwz r15,0x14(r1)
    57ec:	a5 6f 00 40 	l.andi r11,r15,0x40
    57f0:	bc 0b 00 00 	l.sfeqi r11,0x0
    57f4:	10 00 00 04 	l.bf 5804 <print_number+0x28>
    57f8:	aa 31 77 70 	l.ori r17,r17,0x7770
    57fc:	1a 20 00 01 	l.movhi r17,0x1
    5800:	aa 31 77 5c 	l.ori r17,r17,0x775c
    5804:	a6 ef 00 10 	l.andi r23,r15,0x10
    5808:	bc 17 00 00 	l.sfeqi r23,0x0
    580c:	10 00 00 06 	l.bf 5824 <print_number+0x48>
    5810:	a5 6f 00 01 	l.andi r11,r15,0x1
    5814:	9c 40 ff fe 	l.addi r2,r0,0xfffffffe
    5818:	e1 ef 10 03 	l.and r15,r15,r2
    581c:	a6 ef 00 10 	l.andi r23,r15,0x10
    5820:	a5 6f 00 01 	l.andi r11,r15,0x1
    5824:	bc 0b 00 00 	l.sfeqi r11,0x0
    5828:	10 00 00 03 	l.bf 5834 <print_number+0x58>
    582c:	9f 60 00 20 	l.addi r27,r0,0x20
    5830:	9f 60 00 30 	l.addi r27,r0,0x30
    5834:	a6 6f 00 02 	l.andi r19,r15,0x2
    5838:	bc 13 00 00 	l.sfeqi r19,0x0
    583c:	10 00 00 0a 	l.bf 5864 <print_number+0x88>
    5840:	bc 05 00 00 	l.sfeqi r5,0x0
    5844:	bd 65 00 00 	l.sfgesi r5,0x0
    5848:	0c 00 00 67 	l.bnf 59e4 <print_number+0x208>
    584c:	9e 60 00 2d 	l.addi r19,r0,0x2d
    5850:	a5 6f 00 04 	l.andi r11,r15,0x4
    5854:	bc 2b 00 00 	l.sfnei r11,0x0
    5858:	0c 00 00 8c 	l.bnf 5a88 <print_number+0x2ac>
    585c:	9e 60 00 2b 	l.addi r19,r0,0x2b
    5860:	bc 05 00 00 	l.sfeqi r5,0x0
    5864:	0c 00 00 61 	l.bnf 59e8 <print_number+0x20c>
    5868:	9c 40 00 30 	l.addi r2,r0,0x30
    586c:	9d 60 00 01 	l.addi r11,r0,0x1
    5870:	d8 01 10 00 	l.sb 0x0(r1),r2
    5874:	e5 6b 40 00 	l.sfges r11,r8
    5878:	10 00 00 03 	l.bf 5884 <print_number+0xa8>
    587c:	a9 8b 00 00 	l.ori r12,r11,0x0
    5880:	a9 88 00 00 	l.ori r12,r8,0x0
    5884:	a5 ef 00 11 	l.andi r15,r15,0x11
    5888:	bc 2f 00 00 	l.sfnei r15,0x0
    588c:	10 00 00 13 	l.bf 58d8 <print_number+0xfc>
    5890:	e0 e7 60 02 	l.sub r7,r7,r12
    5894:	bd a7 00 00 	l.sflesi r7,0x0
    5898:	0c 00 00 71 	l.bnf 5a5c <print_number+0x280>
    589c:	bc 13 00 00 	l.sfeqi r19,0x0
    58a0:	bd a7 00 00 	l.sflesi r7,0x0
    58a4:	10 00 00 7f 	l.bf 5aa0 <print_number+0x2c4>
    58a8:	9d 07 ff ff 	l.addi r8,r7,0xffffffff
    58ac:	a8 c3 00 00 	l.ori r6,r3,0x0
    58b0:	e4 84 30 00 	l.sfltu r4,r6
    58b4:	10 00 00 04 	l.bf 58c4 <print_number+0xe8>
    58b8:	9d 08 ff ff 	l.addi r8,r8,0xffffffff
    58bc:	9c 40 00 20 	l.addi r2,r0,0x20
    58c0:	d8 06 10 00 	l.sb 0x0(r6),r2
    58c4:	bc 28 ff ff 	l.sfnei r8,0xffffffff
    58c8:	13 ff ff fa 	l.bf 58b0 <_stack+0xfffe0fc0>
    58cc:	9c c6 00 01 	l.addi r6,r6,0x1
    58d0:	e0 63 38 00 	l.add r3,r3,r7
    58d4:	a8 e8 00 00 	l.ori r7,r8,0x0
    58d8:	bc 13 00 00 	l.sfeqi r19,0x0
    58dc:	10 00 00 07 	l.bf 58f8 <print_number+0x11c>
    58e0:	bc 37 00 00 	l.sfnei r23,0x0
    58e4:	e4 43 20 00 	l.sfgtu r3,r4
    58e8:	0c 00 00 65 	l.bnf 5a7c <print_number+0x2a0>
    58ec:	15 00 00 00 	l.nop 0x0
    58f0:	9c 63 00 01 	l.addi r3,r3,0x1
    58f4:	bc 37 00 00 	l.sfnei r23,0x0
    58f8:	10 00 00 10 	l.bf 5938 <print_number+0x15c>
    58fc:	e5 6b 60 00 	l.sfges r11,r12
    5900:	bd a7 00 00 	l.sflesi r7,0x0
    5904:	10 00 00 69 	l.bf 5aa8 <print_number+0x2cc>
    5908:	9d 07 ff ff 	l.addi r8,r7,0xffffffff
    590c:	a8 c3 00 00 	l.ori r6,r3,0x0
    5910:	e4 84 30 00 	l.sfltu r4,r6
    5914:	10 00 00 03 	l.bf 5920 <print_number+0x144>
    5918:	9d 08 ff ff 	l.addi r8,r8,0xffffffff
    591c:	d8 06 d8 00 	l.sb 0x0(r6),r27
    5920:	bc 28 ff ff 	l.sfnei r8,0xffffffff
    5924:	13 ff ff fb 	l.bf 5910 <_stack+0xfffe1020>
    5928:	9c c6 00 01 	l.addi r6,r6,0x1
    592c:	e0 63 38 00 	l.add r3,r3,r7
    5930:	a8 e8 00 00 	l.ori r7,r8,0x0
    5934:	e5 6b 60 00 	l.sfges r11,r12
    5938:	10 00 00 0e 	l.bf 5970 <print_number+0x194>
    593c:	a8 c3 00 00 	l.ori r6,r3,0x0
    5940:	00 00 00 03 	l.j 594c <print_number+0x170>
    5944:	9d 0c ff ff 	l.addi r8,r12,0xffffffff
    5948:	9d 08 ff ff 	l.addi r8,r8,0xffffffff
    594c:	e4 84 30 00 	l.sfltu r4,r6
    5950:	10 00 00 04 	l.bf 5960 <print_number+0x184>
    5954:	e5 6b 40 00 	l.sfges r11,r8
    5958:	9c 40 00 30 	l.addi r2,r0,0x30
    595c:	d8 06 10 00 	l.sb 0x0(r6),r2
    5960:	0f ff ff fa 	l.bnf 5948 <_stack+0xfffe1058>
    5964:	9c c6 00 01 	l.addi r6,r6,0x1
    5968:	e1 6c 58 02 	l.sub r11,r12,r11
    596c:	e0 63 58 00 	l.add r3,r3,r11
    5970:	00 00 00 03 	l.j 597c <print_number+0x1a0>
    5974:	a9 01 00 00 	l.ori r8,r1,0x0
    5978:	9c a5 ff ff 	l.addi r5,r5,0xffffffff
    597c:	e4 84 18 00 	l.sfltu r4,r3
    5980:	10 00 00 04 	l.bf 5990 <print_number+0x1b4>
    5984:	e0 c8 28 00 	l.add r6,r8,r5
    5988:	8c c6 00 00 	l.lbz r6,0x0(r6)
    598c:	d8 03 30 00 	l.sb 0x0(r3),r6
    5990:	bc 05 00 00 	l.sfeqi r5,0x0
    5994:	0f ff ff f9 	l.bnf 5978 <_stack+0xfffe1088>
    5998:	9c 63 00 01 	l.addi r3,r3,0x1
    599c:	bd a7 00 00 	l.sflesi r7,0x0
    59a0:	10 00 00 0d 	l.bf 59d4 <print_number+0x1f8>
    59a4:	a8 c3 00 00 	l.ori r6,r3,0x0
    59a8:	00 00 00 03 	l.j 59b4 <print_number+0x1d8>
    59ac:	9c a7 ff ff 	l.addi r5,r7,0xffffffff
    59b0:	9c a5 ff ff 	l.addi r5,r5,0xffffffff
    59b4:	e4 84 18 00 	l.sfltu r4,r3
    59b8:	10 00 00 04 	l.bf 59c8 <print_number+0x1ec>
    59bc:	bc 05 00 00 	l.sfeqi r5,0x0
    59c0:	9c 40 00 20 	l.addi r2,r0,0x20
    59c4:	d8 03 10 00 	l.sb 0x0(r3),r2
    59c8:	0f ff ff fa 	l.bnf 59b0 <_stack+0xfffe10c0>
    59cc:	9c 63 00 01 	l.addi r3,r3,0x1
    59d0:	e0 66 38 00 	l.add r3,r6,r7
    59d4:	9c 21 00 14 	l.addi r1,r1,0x14
    59d8:	a9 63 00 00 	l.ori r11,r3,0x0
    59dc:	44 00 48 00 	l.jr r9
    59e0:	84 41 ff fc 	l.lwz r2,0xfffffffc(r1)
    59e4:	e0 a0 28 02 	l.sub r5,r0,r5
    59e8:	9d 60 00 00 	l.addi r11,r0,0x0
    59ec:	00 00 00 0a 	l.j 5a14 <print_number+0x238>
    59f0:	aa a1 00 00 	l.ori r21,r1,0x0
    59f4:	e1 91 60 00 	l.add r12,r17,r12
    59f8:	e1 b5 58 00 	l.add r13,r21,r11
    59fc:	8d 8c 00 00 	l.lbz r12,0x0(r12)
    5a00:	b8 a5 00 44 	l.srli r5,r5,0x4
    5a04:	d8 0d 60 00 	l.sb 0x0(r13),r12
    5a08:	bc 25 00 00 	l.sfnei r5,0x0
    5a0c:	0c 00 00 12 	l.bnf 5a54 <print_number+0x278>
    5a10:	9d 6b 00 01 	l.addi r11,r11,0x1
    5a14:	bc 26 00 0a 	l.sfnei r6,0xa
    5a18:	13 ff ff f7 	l.bf 59f4 <_stack+0xfffe1104>
    5a1c:	a5 85 00 0f 	l.andi r12,r5,0xf
    5a20:	e1 a5 33 0a 	l.divu r13,r5,r6
    5a24:	b9 8d 00 03 	l.slli r12,r13,0x3
    5a28:	e3 2d 68 00 	l.add r25,r13,r13
    5a2c:	e1 99 60 00 	l.add r12,r25,r12
    5a30:	e1 85 60 02 	l.sub r12,r5,r12
    5a34:	a8 ad 00 00 	l.ori r5,r13,0x0
    5a38:	e1 91 60 00 	l.add r12,r17,r12
    5a3c:	e1 b5 58 00 	l.add r13,r21,r11
    5a40:	8d 8c 00 00 	l.lbz r12,0x0(r12)
    5a44:	d8 0d 60 00 	l.sb 0x0(r13),r12
    5a48:	bc 25 00 00 	l.sfnei r5,0x0
    5a4c:	13 ff ff f2 	l.bf 5a14 <_stack+0xfffe1124>
    5a50:	9d 6b 00 01 	l.addi r11,r11,0x1
    5a54:	03 ff ff 88 	l.j 5874 <_stack+0xfffe0f84>
    5a58:	9c ab ff ff 	l.addi r5,r11,0xffffffff
    5a5c:	13 ff ff 92 	l.bf 58a4 <_stack+0xfffe0fb4>
    5a60:	bd a7 00 00 	l.sflesi r7,0x0
    5a64:	9c e7 ff ff 	l.addi r7,r7,0xffffffff
    5a68:	bd a7 00 00 	l.sflesi r7,0x0
    5a6c:	0f ff ff 90 	l.bnf 58ac <_stack+0xfffe0fbc>
    5a70:	9d 07 ff ff 	l.addi r8,r7,0xffffffff
    5a74:	03 ff ff 99 	l.j 58d8 <_stack+0xfffe0fe8>
    5a78:	a8 e8 00 00 	l.ori r7,r8,0x0
    5a7c:	d8 03 98 00 	l.sb 0x0(r3),r19
    5a80:	03 ff ff 9c 	l.j 58f0 <_stack+0xfffe1000>
    5a84:	9c e7 ff ff 	l.addi r7,r7,0xffffffff
    5a88:	a6 6f 00 08 	l.andi r19,r15,0x8
    5a8c:	bc 13 00 00 	l.sfeqi r19,0x0
    5a90:	13 ff ff 75 	l.bf 5864 <_stack+0xfffe0f74>
    5a94:	bc 05 00 00 	l.sfeqi r5,0x0
    5a98:	03 ff ff 73 	l.j 5864 <_stack+0xfffe0f74>
    5a9c:	9e 60 00 20 	l.addi r19,r0,0x20
    5aa0:	03 ff ff 8e 	l.j 58d8 <_stack+0xfffe0fe8>
    5aa4:	a8 e8 00 00 	l.ori r7,r8,0x0
    5aa8:	03 ff ff a3 	l.j 5934 <_stack+0xfffe1044>
    5aac:	a8 e8 00 00 	l.ori r7,r8,0x0

00005ab0 <vsnprintf>:
    5ab0:	9c 84 ff ff 	l.addi r4,r4,0xffffffff
    5ab4:	d7 e1 17 e8 	l.sw 0xffffffe8(r1),r2
    5ab8:	d7 e1 77 ec 	l.sw 0xffffffec(r1),r14
    5abc:	d7 e1 87 f0 	l.sw 0xfffffff0(r1),r16
    5ac0:	d7 e1 97 f4 	l.sw 0xfffffff4(r1),r18
    5ac4:	d7 e1 4f fc 	l.sw 0xfffffffc(r1),r9
    5ac8:	d7 e1 a7 f8 	l.sw 0xfffffff8(r1),r20
    5acc:	e1 c3 20 00 	l.add r14,r3,r4
    5ad0:	9c 21 ff e4 	l.addi r1,r1,0xffffffe4
    5ad4:	aa 43 00 00 	l.ori r18,r3,0x0
    5ad8:	a8 45 00 00 	l.ori r2,r5,0x0
    5adc:	e4 43 70 00 	l.sfgtu r3,r14
    5ae0:	0c 00 00 03 	l.bnf 5aec <vsnprintf+0x3c>
    5ae4:	aa 06 00 00 	l.ori r16,r6,0x0
    5ae8:	9d c0 ff ff 	l.addi r14,r0,0xffffffff
    5aec:	90 82 00 00 	l.lbs r4,0x0(r2)
    5af0:	bc 04 00 00 	l.sfeqi r4,0x0
    5af4:	10 00 00 10 	l.bf 5b34 <vsnprintf+0x84>
    5af8:	a9 72 00 00 	l.ori r11,r18,0x0
    5afc:	9e 80 00 01 	l.addi r20,r0,0x1
    5b00:	bc 24 00 25 	l.sfnei r4,0x25
    5b04:	0c 00 00 1a 	l.bnf 5b6c <vsnprintf+0xbc>
    5b08:	9d a0 00 00 	l.addi r13,r0,0x0
    5b0c:	e4 4b 70 00 	l.sfgtu r11,r14
    5b10:	10 00 00 03 	l.bf 5b1c <vsnprintf+0x6c>
    5b14:	15 00 00 00 	l.nop 0x0
    5b18:	d8 0b 20 00 	l.sb 0x0(r11),r4
    5b1c:	9d 6b 00 01 	l.addi r11,r11,0x1
    5b20:	9c 42 00 01 	l.addi r2,r2,0x1
    5b24:	90 82 00 00 	l.lbs r4,0x0(r2)
    5b28:	bc 24 00 00 	l.sfnei r4,0x0
    5b2c:	13 ff ff f6 	l.bf 5b04 <_stack+0xfffe1214>
    5b30:	bc 24 00 25 	l.sfnei r4,0x25
    5b34:	e4 8e 58 00 	l.sfltu r14,r11
    5b38:	0c 00 01 2c 	l.bnf 5fe8 <vsnprintf+0x538>
    5b3c:	9c 40 00 00 	l.addi r2,r0,0x0
    5b40:	d8 0e 10 00 	l.sb 0x0(r14),r2
    5b44:	9c 21 00 1c 	l.addi r1,r1,0x1c
    5b48:	e1 6b 90 02 	l.sub r11,r11,r18
    5b4c:	85 21 ff fc 	l.lwz r9,0xfffffffc(r1)
    5b50:	84 41 ff e8 	l.lwz r2,0xffffffe8(r1)
    5b54:	85 c1 ff ec 	l.lwz r14,0xffffffec(r1)
    5b58:	86 01 ff f0 	l.lwz r16,0xfffffff0(r1)
    5b5c:	86 41 ff f4 	l.lwz r18,0xfffffff4(r1)
    5b60:	44 00 48 00 	l.jr r9
    5b64:	86 81 ff f8 	l.lwz r20,0xfffffff8(r1)
    5b68:	a9 ad 00 20 	l.ori r13,r13,0x20
    5b6c:	9c 42 00 01 	l.addi r2,r2,0x1
    5b70:	91 82 00 00 	l.lbs r12,0x0(r2)
    5b74:	bc 2c 00 2d 	l.sfnei r12,0x2d
    5b78:	0c 00 00 10 	l.bnf 5bb8 <vsnprintf+0x108>
    5b7c:	15 00 00 00 	l.nop 0x0
    5b80:	bc 2c 00 2b 	l.sfnei r12,0x2b
    5b84:	0c 00 00 0f 	l.bnf 5bc0 <vsnprintf+0x110>
    5b88:	bc 2c 00 20 	l.sfnei r12,0x20
    5b8c:	0c 00 00 0f 	l.bnf 5bc8 <vsnprintf+0x118>
    5b90:	bc 2c 00 23 	l.sfnei r12,0x23
    5b94:	0f ff ff f5 	l.bnf 5b68 <_stack+0xfffe1278>
    5b98:	bc 2c 00 30 	l.sfnei r12,0x30
    5b9c:	10 00 00 0d 	l.bf 5bd0 <vsnprintf+0x120>
    5ba0:	9c ac ff d0 	l.addi r5,r12,0xffffffd0
    5ba4:	9c 42 00 01 	l.addi r2,r2,0x1
    5ba8:	91 82 00 00 	l.lbs r12,0x0(r2)
    5bac:	bc 2c 00 2d 	l.sfnei r12,0x2d
    5bb0:	13 ff ff f4 	l.bf 5b80 <_stack+0xfffe1290>
    5bb4:	a9 ad 00 01 	l.ori r13,r13,0x1
    5bb8:	03 ff ff ed 	l.j 5b6c <_stack+0xfffe127c>
    5bbc:	a9 ad 00 10 	l.ori r13,r13,0x10
    5bc0:	03 ff ff eb 	l.j 5b6c <_stack+0xfffe127c>
    5bc4:	a9 ad 00 04 	l.ori r13,r13,0x4
    5bc8:	03 ff ff e9 	l.j 5b6c <_stack+0xfffe127c>
    5bcc:	a9 ad 00 08 	l.ori r13,r13,0x8
    5bd0:	bc 45 00 09 	l.sfgtui r5,0x9
    5bd4:	10 00 00 32 	l.bf 5c9c <vsnprintf+0x1ec>
    5bd8:	bc 2c 00 2a 	l.sfnei r12,0x2a
    5bdc:	9c e0 00 00 	l.addi r7,r0,0x0
    5be0:	b8 87 00 03 	l.slli r4,r7,0x3
    5be4:	9c 42 00 01 	l.addi r2,r2,0x1
    5be8:	e0 e7 38 00 	l.add r7,r7,r7
    5bec:	91 82 00 00 	l.lbs r12,0x0(r2)
    5bf0:	e0 e7 20 00 	l.add r7,r7,r4
    5bf4:	e0 e5 38 00 	l.add r7,r5,r7
    5bf8:	9c ac ff d0 	l.addi r5,r12,0xffffffd0
    5bfc:	bc a5 00 09 	l.sfleui r5,0x9
    5c00:	13 ff ff f9 	l.bf 5be4 <_stack+0xfffe12f4>
    5c04:	b8 87 00 03 	l.slli r4,r7,0x3
    5c08:	bc 2c 00 2e 	l.sfnei r12,0x2e
    5c0c:	0c 00 00 2f 	l.bnf 5cc8 <vsnprintf+0x218>
    5c10:	9d 00 ff ff 	l.addi r8,r0,0xffffffff
    5c14:	ac 6c 00 6c 	l.xori r3,r12,0x6c
    5c18:	a4 63 00 ff 	l.andi r3,r3,0xff
    5c1c:	9c 63 ff ff 	l.addi r3,r3,0xffffffff
    5c20:	bd 83 00 00 	l.sfltsi r3,0x0
    5c24:	10 00 00 08 	l.bf 5c44 <vsnprintf+0x194>
    5c28:	ac 8c 00 68 	l.xori r4,r12,0x68
    5c2c:	a4 84 00 ff 	l.andi r4,r4,0xff
    5c30:	9c 84 ff ff 	l.addi r4,r4,0xffffffff
    5c34:	b8 84 00 5f 	l.srli r4,r4,0x1f
    5c38:	bc 04 00 00 	l.sfeqi r4,0x0
    5c3c:	10 00 00 06 	l.bf 5c54 <vsnprintf+0x1a4>
    5c40:	9c 6c ff db 	l.addi r3,r12,0xffffffdb
    5c44:	9c 42 00 01 	l.addi r2,r2,0x1
    5c48:	a4 8c 00 ff 	l.andi r4,r12,0xff
    5c4c:	91 82 00 00 	l.lbs r12,0x0(r2)
    5c50:	9c 6c ff db 	l.addi r3,r12,0xffffffdb
    5c54:	a4 63 00 ff 	l.andi r3,r3,0xff
    5c58:	bc 43 00 53 	l.sfgtui r3,0x53
    5c5c:	0c 00 00 30 	l.bnf 5d1c <vsnprintf+0x26c>
    5c60:	15 00 00 00 	l.nop 0x0
    5c64:	e4 4b 70 00 	l.sfgtu r11,r14
    5c68:	10 00 00 06 	l.bf 5c80 <vsnprintf+0x1d0>
    5c6c:	bc 0c 00 00 	l.sfeqi r12,0x0
    5c70:	9c c0 00 25 	l.addi r6,r0,0x25
    5c74:	d8 0b 30 00 	l.sb 0x0(r11),r6
    5c78:	91 82 00 00 	l.lbs r12,0x0(r2)
    5c7c:	bc 0c 00 00 	l.sfeqi r12,0x0
    5c80:	10 00 00 e7 	l.bf 601c <vsnprintf+0x56c>
    5c84:	9d 6b 00 01 	l.addi r11,r11,0x1
    5c88:	e4 4b 70 00 	l.sfgtu r11,r14
    5c8c:	13 ff ff a4 	l.bf 5b1c <_stack+0xfffe122c>
    5c90:	15 00 00 00 	l.nop 0x0
    5c94:	03 ff ff a2 	l.j 5b1c <_stack+0xfffe122c>
    5c98:	d8 0b 60 00 	l.sb 0x0(r11),r12
    5c9c:	13 ff ff db 	l.bf 5c08 <_stack+0xfffe1318>
    5ca0:	9c e0 ff ff 	l.addi r7,r0,0xffffffff
    5ca4:	84 f0 00 00 	l.lwz r7,0x0(r16)
    5ca8:	9c 42 00 01 	l.addi r2,r2,0x1
    5cac:	bd 87 00 00 	l.sfltsi r7,0x0
    5cb0:	10 00 00 e4 	l.bf 6040 <vsnprintf+0x590>
    5cb4:	9e 10 00 04 	l.addi r16,r16,0x4
    5cb8:	91 82 00 00 	l.lbs r12,0x0(r2)
    5cbc:	bc 2c 00 2e 	l.sfnei r12,0x2e
    5cc0:	13 ff ff d5 	l.bf 5c14 <_stack+0xfffe1324>
    5cc4:	9d 00 ff ff 	l.addi r8,r0,0xffffffff
    5cc8:	9c 42 00 01 	l.addi r2,r2,0x1
    5ccc:	91 82 00 00 	l.lbs r12,0x0(r2)
    5cd0:	9c 8c ff d0 	l.addi r4,r12,0xffffffd0
    5cd4:	bc 44 00 09 	l.sfgtui r4,0x9
    5cd8:	10 00 00 18 	l.bf 5d38 <vsnprintf+0x288>
    5cdc:	bc 2c 00 2a 	l.sfnei r12,0x2a
    5ce0:	9d 00 00 00 	l.addi r8,r0,0x0
    5ce4:	b8 68 00 03 	l.slli r3,r8,0x3
    5ce8:	9c 42 00 01 	l.addi r2,r2,0x1
    5cec:	e1 08 40 00 	l.add r8,r8,r8
    5cf0:	91 82 00 00 	l.lbs r12,0x0(r2)
    5cf4:	e1 08 18 00 	l.add r8,r8,r3
    5cf8:	e1 04 40 00 	l.add r8,r4,r8
    5cfc:	9c 8c ff d0 	l.addi r4,r12,0xffffffd0
    5d00:	bc a4 00 09 	l.sfleui r4,0x9
    5d04:	13 ff ff f9 	l.bf 5ce8 <_stack+0xfffe13f8>
    5d08:	b8 68 00 03 	l.slli r3,r8,0x3
    5d0c:	ac 68 ff ff 	l.xori r3,r8,0xffffffff
    5d10:	b8 63 00 9f 	l.srai r3,r3,0x1f
    5d14:	03 ff ff c0 	l.j 5c14 <_stack+0xfffe1324>
    5d18:	e1 08 18 03 	l.and r8,r8,r3
    5d1c:	18 a0 00 01 	l.movhi r5,0x1
    5d20:	b8 63 00 02 	l.slli r3,r3,0x2
    5d24:	a8 a5 76 0c 	l.ori r5,r5,0x760c
    5d28:	e0 63 28 00 	l.add r3,r3,r5
    5d2c:	84 63 00 00 	l.lwz r3,0x0(r3)
    5d30:	44 00 18 00 	l.jr r3
    5d34:	15 00 00 00 	l.nop 0x0
    5d38:	13 ff ff b7 	l.bf 5c14 <_stack+0xfffe1324>
    5d3c:	9d 00 00 00 	l.addi r8,r0,0x0
    5d40:	9c 42 00 01 	l.addi r2,r2,0x1
    5d44:	85 10 00 00 	l.lwz r8,0x0(r16)
    5d48:	91 82 00 00 	l.lbs r12,0x0(r2)
    5d4c:	03 ff ff f0 	l.j 5d0c <_stack+0xfffe141c>
    5d50:	9e 10 00 04 	l.addi r16,r16,0x4
    5d54:	9c c0 00 0a 	l.addi r6,r0,0xa
    5d58:	bc 24 00 6c 	l.sfnei r4,0x6c
    5d5c:	0c 00 00 04 	l.bnf 5d6c <vsnprintf+0x2bc>
    5d60:	bc 24 00 68 	l.sfnei r4,0x68
    5d64:	0c 00 00 a4 	l.bnf 5ff4 <vsnprintf+0x544>
    5d68:	a4 6d 00 02 	l.andi r3,r13,0x2
    5d6c:	84 b0 00 00 	l.lwz r5,0x0(r16)
    5d70:	9e 10 00 04 	l.addi r16,r16,0x4
    5d74:	a8 6b 00 00 	l.ori r3,r11,0x0
    5d78:	a8 8e 00 00 	l.ori r4,r14,0x0
    5d7c:	07 ff fe 98 	l.jal 57dc <_stack+0xfffe0eec>
    5d80:	d4 01 68 00 	l.sw 0x0(r1),r13
    5d84:	03 ff ff 68 	l.j 5b24 <_stack+0xfffe1234>
    5d88:	9c 42 00 01 	l.addi r2,r2,0x1
    5d8c:	bc 27 ff ff 	l.sfnei r7,0xffffffff
    5d90:	0c 00 00 b0 	l.bnf 6050 <vsnprintf+0x5a0>
    5d94:	15 00 00 00 	l.nop 0x0
    5d98:	d4 01 68 00 	l.sw 0x0(r1),r13
    5d9c:	9d 90 00 04 	l.addi r12,r16,0x4
    5da0:	84 b0 00 00 	l.lwz r5,0x0(r16)
    5da4:	a8 6b 00 00 	l.ori r3,r11,0x0
    5da8:	a8 8e 00 00 	l.ori r4,r14,0x0
    5dac:	9c c0 00 10 	l.addi r6,r0,0x10
    5db0:	07 ff fe 8b 	l.jal 57dc <_stack+0xfffe0eec>
    5db4:	aa 0c 00 00 	l.ori r16,r12,0x0
    5db8:	03 ff ff 5b 	l.j 5b24 <_stack+0xfffe1234>
    5dbc:	9c 42 00 01 	l.addi r2,r2,0x1
    5dc0:	03 ff ff e6 	l.j 5d58 <_stack+0xfffe1468>
    5dc4:	9c c0 00 08 	l.addi r6,r0,0x8
    5dc8:	85 90 00 00 	l.lwz r12,0x0(r16)
    5dcc:	bc 0c 00 00 	l.sfeqi r12,0x0
    5dd0:	10 00 00 a3 	l.bf 605c <vsnprintf+0x5ac>
    5dd4:	9d f0 00 04 	l.addi r15,r16,0x4
    5dd8:	90 6c 00 00 	l.lbs r3,0x0(r12)
    5ddc:	bc 03 00 00 	l.sfeqi r3,0x0
    5de0:	10 00 00 08 	l.bf 5e00 <vsnprintf+0x350>
    5de4:	a8 8c 00 00 	l.ori r4,r12,0x0
    5de8:	9c 84 00 01 	l.addi r4,r4,0x1
    5dec:	90 64 00 00 	l.lbs r3,0x0(r4)
    5df0:	bc 23 00 00 	l.sfnei r3,0x0
    5df4:	13 ff ff fe 	l.bf 5dec <_stack+0xfffe14fc>
    5df8:	9c 84 00 01 	l.addi r4,r4,0x1
    5dfc:	9c 84 ff ff 	l.addi r4,r4,0xffffffff
    5e00:	e0 84 60 02 	l.sub r4,r4,r12
    5e04:	e5 88 20 00 	l.sflts r8,r4
    5e08:	0c 00 00 87 	l.bnf 6024 <vsnprintf+0x574>
    5e0c:	9c 60 00 01 	l.addi r3,r0,0x1
    5e10:	a4 63 00 ff 	l.andi r3,r3,0xff
    5e14:	bc 03 00 00 	l.sfeqi r3,0x0
    5e18:	10 00 00 05 	l.bf 5e2c <vsnprintf+0x37c>
    5e1c:	bd a8 00 00 	l.sflesi r8,0x0
    5e20:	10 00 00 03 	l.bf 5e2c <vsnprintf+0x37c>
    5e24:	15 00 00 00 	l.nop 0x0
    5e28:	a8 88 00 00 	l.ori r4,r8,0x0
    5e2c:	a5 ad 00 10 	l.andi r13,r13,0x10
    5e30:	bc 2d 00 00 	l.sfnei r13,0x0
    5e34:	10 00 00 17 	l.bf 5e90 <vsnprintf+0x3e0>
    5e38:	bd a4 00 00 	l.sflesi r4,0x0
    5e3c:	e5 64 38 00 	l.sfges r4,r7
    5e40:	10 00 00 8d 	l.bf 6074 <vsnprintf+0x5c4>
    5e44:	9c c7 ff ff 	l.addi r6,r7,0xffffffff
    5e48:	a9 07 00 00 	l.ori r8,r7,0x0
    5e4c:	a8 a7 00 00 	l.ori r5,r7,0x0
    5e50:	a8 6b 00 00 	l.ori r3,r11,0x0
    5e54:	e4 8e 18 00 	l.sfltu r14,r3
    5e58:	10 00 00 03 	l.bf 5e64 <vsnprintf+0x3b4>
    5e5c:	9d a0 00 20 	l.addi r13,r0,0x20
    5e60:	d8 03 68 00 	l.sb 0x0(r3),r13
    5e64:	9c a5 ff ff 	l.addi r5,r5,0xffffffff
    5e68:	e5 84 28 00 	l.sflts r4,r5
    5e6c:	13 ff ff fa 	l.bf 5e54 <_stack+0xfffe1564>
    5e70:	9c 63 00 01 	l.addi r3,r3,0x1
    5e74:	e0 b4 38 02 	l.sub r5,r20,r7
    5e78:	9c c6 ff ff 	l.addi r6,r6,0xffffffff
    5e7c:	e0 a5 20 00 	l.add r5,r5,r4
    5e80:	e0 68 20 02 	l.sub r3,r8,r4
    5e84:	e0 e6 28 00 	l.add r7,r6,r5
    5e88:	e1 6b 18 00 	l.add r11,r11,r3
    5e8c:	bd a4 00 00 	l.sflesi r4,0x0
    5e90:	10 00 00 0f 	l.bf 5ecc <vsnprintf+0x41c>
    5e94:	e5 64 38 00 	l.sfges r4,r7
    5e98:	a8 cb 00 00 	l.ori r6,r11,0x0
    5e9c:	9c a0 00 00 	l.addi r5,r0,0x0
    5ea0:	e4 8e 30 00 	l.sfltu r14,r6
    5ea4:	10 00 00 04 	l.bf 5eb4 <vsnprintf+0x404>
    5ea8:	e0 6c 28 00 	l.add r3,r12,r5
    5eac:	8c 63 00 00 	l.lbz r3,0x0(r3)
    5eb0:	d8 06 18 00 	l.sb 0x0(r6),r3
    5eb4:	9c a5 00 01 	l.addi r5,r5,0x1
    5eb8:	e4 25 20 00 	l.sfne r5,r4
    5ebc:	13 ff ff f9 	l.bf 5ea0 <_stack+0xfffe15b0>
    5ec0:	9c c6 00 01 	l.addi r6,r6,0x1
    5ec4:	e1 6b 20 00 	l.add r11,r11,r4
    5ec8:	e5 64 38 00 	l.sfges r4,r7
    5ecc:	13 ff ff 15 	l.bf 5b20 <_stack+0xfffe1230>
    5ed0:	aa 0f 00 00 	l.ori r16,r15,0x0
    5ed4:	9c c7 ff ff 	l.addi r6,r7,0xffffffff
    5ed8:	00 00 00 03 	l.j 5ee4 <vsnprintf+0x434>
    5edc:	a8 ab 00 00 	l.ori r5,r11,0x0
    5ee0:	9c c6 ff ff 	l.addi r6,r6,0xffffffff
    5ee4:	e4 8e 28 00 	l.sfltu r14,r5
    5ee8:	10 00 00 04 	l.bf 5ef8 <vsnprintf+0x448>
    5eec:	e5 84 30 00 	l.sflts r4,r6
    5ef0:	9c 60 00 20 	l.addi r3,r0,0x20
    5ef4:	d8 05 18 00 	l.sb 0x0(r5),r3
    5ef8:	13 ff ff fa 	l.bf 5ee0 <_stack+0xfffe15f0>
    5efc:	9c a5 00 01 	l.addi r5,r5,0x1
    5f00:	e0 87 20 02 	l.sub r4,r7,r4
    5f04:	aa 0f 00 00 	l.ori r16,r15,0x0
    5f08:	03 ff ff 06 	l.j 5b20 <_stack+0xfffe1230>
    5f0c:	e1 6b 20 00 	l.add r11,r11,r4
    5f10:	03 ff ff 92 	l.j 5d58 <_stack+0xfffe1468>
    5f14:	9c c0 00 10 	l.addi r6,r0,0x10
    5f18:	a9 ad 00 02 	l.ori r13,r13,0x2
    5f1c:	03 ff ff 8f 	l.j 5d58 <_stack+0xfffe1468>
    5f20:	9c c0 00 0a 	l.addi r6,r0,0xa
    5f24:	a5 ad 00 10 	l.andi r13,r13,0x10
    5f28:	bc 2d 00 00 	l.sfnei r13,0x0
    5f2c:	10 00 00 13 	l.bf 5f78 <vsnprintf+0x4c8>
    5f30:	9c b0 00 04 	l.addi r5,r16,0x4
    5f34:	9c a7 ff ff 	l.addi r5,r7,0xffffffff
    5f38:	a8 e5 00 00 	l.ori r7,r5,0x0
    5f3c:	bd a5 00 00 	l.sflesi r5,0x0
    5f40:	10 00 00 0d 	l.bf 5f74 <vsnprintf+0x4c4>
    5f44:	a8 85 00 00 	l.ori r4,r5,0x0
    5f48:	a8 6b 00 00 	l.ori r3,r11,0x0
    5f4c:	e4 8e 18 00 	l.sfltu r14,r3
    5f50:	10 00 00 03 	l.bf 5f5c <vsnprintf+0x4ac>
    5f54:	9c c0 00 20 	l.addi r6,r0,0x20
    5f58:	d8 03 30 00 	l.sb 0x0(r3),r6
    5f5c:	9c 84 ff ff 	l.addi r4,r4,0xffffffff
    5f60:	bc 24 00 00 	l.sfnei r4,0x0
    5f64:	13 ff ff fa 	l.bf 5f4c <_stack+0xfffe165c>
    5f68:	9c 63 00 01 	l.addi r3,r3,0x1
    5f6c:	e1 6b 28 00 	l.add r11,r11,r5
    5f70:	a8 e4 00 00 	l.ori r7,r4,0x0
    5f74:	9c b0 00 04 	l.addi r5,r16,0x4
    5f78:	e4 4b 70 00 	l.sfgtu r11,r14
    5f7c:	0c 00 00 26 	l.bnf 6014 <vsnprintf+0x564>
    5f80:	84 70 00 00 	l.lwz r3,0x0(r16)
    5f84:	bd a7 00 01 	l.sflesi r7,0x1
    5f88:	10 00 00 38 	l.bf 6068 <vsnprintf+0x5b8>
    5f8c:	9c 6b 00 01 	l.addi r3,r11,0x1
    5f90:	e1 6b 38 00 	l.add r11,r11,r7
    5f94:	a8 83 00 00 	l.ori r4,r3,0x0
    5f98:	e4 8e 20 00 	l.sfltu r14,r4
    5f9c:	10 00 00 03 	l.bf 5fa8 <vsnprintf+0x4f8>
    5fa0:	9d a0 00 20 	l.addi r13,r0,0x20
    5fa4:	d8 04 68 00 	l.sb 0x0(r4),r13
    5fa8:	9c 84 00 01 	l.addi r4,r4,0x1
    5fac:	e4 24 58 00 	l.sfne r4,r11
    5fb0:	13 ff ff fb 	l.bf 5f9c <_stack+0xfffe16ac>
    5fb4:	e4 8e 20 00 	l.sfltu r14,r4
    5fb8:	9c e7 ff ff 	l.addi r7,r7,0xffffffff
    5fbc:	aa 05 00 00 	l.ori r16,r5,0x0
    5fc0:	03 ff fe d8 	l.j 5b20 <_stack+0xfffe1230>
    5fc4:	e1 63 38 00 	l.add r11,r3,r7
    5fc8:	a9 ad 00 40 	l.ori r13,r13,0x40
    5fcc:	03 ff ff 63 	l.j 5d58 <_stack+0xfffe1468>
    5fd0:	9c c0 00 10 	l.addi r6,r0,0x10
    5fd4:	e4 4b 70 00 	l.sfgtu r11,r14
    5fd8:	13 ff fe d1 	l.bf 5b1c <_stack+0xfffe122c>
    5fdc:	9c a0 00 25 	l.addi r5,r0,0x25
    5fe0:	03 ff fe cf 	l.j 5b1c <_stack+0xfffe122c>
    5fe4:	d8 0b 28 00 	l.sb 0x0(r11),r5
    5fe8:	9d a0 00 00 	l.addi r13,r0,0x0
    5fec:	03 ff fe d6 	l.j 5b44 <_stack+0xfffe1254>
    5ff0:	d8 0b 68 00 	l.sb 0x0(r11),r13
    5ff4:	84 b0 00 00 	l.lwz r5,0x0(r16)
    5ff8:	a4 a5 ff ff 	l.andi r5,r5,0xffff
    5ffc:	bc 03 00 00 	l.sfeqi r3,0x0
    6000:	13 ff ff 5d 	l.bf 5d74 <_stack+0xfffe1484>
    6004:	9e 10 00 04 	l.addi r16,r16,0x4
    6008:	b8 a5 00 10 	l.slli r5,r5,0x10
    600c:	03 ff ff 5a 	l.j 5d74 <_stack+0xfffe1484>
    6010:	b8 a5 00 90 	l.srai r5,r5,0x10
    6014:	03 ff ff dc 	l.j 5f84 <_stack+0xfffe1694>
    6018:	d8 0b 18 00 	l.sb 0x0(r11),r3
    601c:	03 ff fe c1 	l.j 5b20 <_stack+0xfffe1230>
    6020:	9c 42 ff ff 	l.addi r2,r2,0xffffffff
    6024:	9c 60 00 00 	l.addi r3,r0,0x0
    6028:	a4 63 00 ff 	l.andi r3,r3,0xff
    602c:	bc 03 00 00 	l.sfeqi r3,0x0
    6030:	13 ff ff 7f 	l.bf 5e2c <_stack+0xfffe153c>
    6034:	bd a8 00 00 	l.sflesi r8,0x0
    6038:	03 ff ff 7a 	l.j 5e20 <_stack+0xfffe1530>
    603c:	15 00 00 00 	l.nop 0x0
    6040:	91 82 00 00 	l.lbs r12,0x0(r2)
    6044:	e0 e0 38 02 	l.sub r7,r0,r7
    6048:	03 ff fe f0 	l.j 5c08 <_stack+0xfffe1318>
    604c:	a9 ad 00 10 	l.ori r13,r13,0x10
    6050:	a9 ad 00 01 	l.ori r13,r13,0x1
    6054:	03 ff ff 51 	l.j 5d98 <_stack+0xfffe14a8>
    6058:	9c e0 00 08 	l.addi r7,r0,0x8
    605c:	19 80 00 01 	l.movhi r12,0x1
    6060:	03 ff ff 5e 	l.j 5dd8 <_stack+0xfffe14e8>
    6064:	a9 8c 9a e0 	l.ori r12,r12,0x9ae0
    6068:	a9 63 00 00 	l.ori r11,r3,0x0
    606c:	03 ff fe ad 	l.j 5b20 <_stack+0xfffe1230>
    6070:	aa 05 00 00 	l.ori r16,r5,0x0
    6074:	03 ff ff 86 	l.j 5e8c <_stack+0xfffe159c>
    6078:	a8 e6 00 00 	l.ori r7,r6,0x0

0000607c <rt_get_errno>:
    607c:	d7 e1 4f fc 	l.sw 0xfffffffc(r1),r9
    6080:	07 ff fd d2 	l.jal 57c8 <_stack+0xfffe0ed8>
    6084:	9c 21 ff fc 	l.addi r1,r1,0xfffffffc
    6088:	bc 0b 00 00 	l.sfeqi r11,0x0
    608c:	10 00 00 08 	l.bf 60ac <rt_get_errno+0x30>
    6090:	18 60 00 01 	l.movhi r3,0x1
    6094:	a8 63 b1 98 	l.ori r3,r3,0xb198
    6098:	85 63 00 00 	l.lwz r11,0x0(r3)
    609c:	9c 21 00 04 	l.addi r1,r1,0x4
    60a0:	85 21 ff fc 	l.lwz r9,0xfffffffc(r1)
    60a4:	44 00 48 00 	l.jr r9
    60a8:	15 00 00 00 	l.nop 0x0
    60ac:	04 00 08 b0 	l.jal 836c <rt_thread_self>
    60b0:	15 00 00 00 	l.nop 0x0
    60b4:	bc 2b 00 00 	l.sfnei r11,0x0
    60b8:	0f ff ff f7 	l.bnf 6094 <_stack+0xfffe17a4>
    60bc:	18 60 00 01 	l.movhi r3,0x1
    60c0:	85 6b 00 48 	l.lwz r11,0x48(r11)
    60c4:	9c 21 00 04 	l.addi r1,r1,0x4
    60c8:	85 21 ff fc 	l.lwz r9,0xfffffffc(r1)
    60cc:	44 00 48 00 	l.jr r9
    60d0:	15 00 00 00 	l.nop 0x0

000060d4 <rt_set_errno>:
    60d4:	d7 e1 17 f8 	l.sw 0xfffffff8(r1),r2
    60d8:	d7 e1 4f fc 	l.sw 0xfffffffc(r1),r9
    60dc:	9c 21 ff f8 	l.addi r1,r1,0xfffffff8
    60e0:	07 ff fd ba 	l.jal 57c8 <_stack+0xfffe0ed8>
    60e4:	a8 43 00 00 	l.ori r2,r3,0x0
    60e8:	bc 0b 00 00 	l.sfeqi r11,0x0
    60ec:	10 00 00 08 	l.bf 610c <rt_set_errno+0x38>
    60f0:	18 60 00 01 	l.movhi r3,0x1
    60f4:	a8 63 b1 98 	l.ori r3,r3,0xb198
    60f8:	d4 03 10 00 	l.sw 0x0(r3),r2
    60fc:	9c 21 00 08 	l.addi r1,r1,0x8
    6100:	85 21 ff fc 	l.lwz r9,0xfffffffc(r1)
    6104:	44 00 48 00 	l.jr r9
    6108:	84 41 ff f8 	l.lwz r2,0xfffffff8(r1)
    610c:	04 00 08 98 	l.jal 836c <rt_thread_self>
    6110:	15 00 00 00 	l.nop 0x0
    6114:	bc 2b 00 00 	l.sfnei r11,0x0
    6118:	0f ff ff f7 	l.bnf 60f4 <_stack+0xfffe1804>
    611c:	18 60 00 01 	l.movhi r3,0x1
    6120:	d4 0b 10 48 	l.sw 0x48(r11),r2
    6124:	9c 21 00 08 	l.addi r1,r1,0x8
    6128:	85 21 ff fc 	l.lwz r9,0xfffffffc(r1)
    612c:	44 00 48 00 	l.jr r9
    6130:	84 41 ff f8 	l.lwz r2,0xfffffff8(r1)

00006134 <_rt_errno>:
    6134:	d7 e1 17 f8 	l.sw 0xfffffff8(r1),r2
    6138:	d7 e1 4f fc 	l.sw 0xfffffffc(r1),r9
    613c:	18 40 00 01 	l.movhi r2,0x1
    6140:	9c 21 ff f8 	l.addi r1,r1,0xfffffff8
    6144:	07 ff fd a1 	l.jal 57c8 <_stack+0xfffe0ed8>
    6148:	a8 42 b1 98 	l.ori r2,r2,0xb198
    614c:	bc 2b 00 00 	l.sfnei r11,0x0
    6150:	0c 00 00 07 	l.bnf 616c <_rt_errno+0x38>
    6154:	15 00 00 00 	l.nop 0x0
    6158:	9c 21 00 08 	l.addi r1,r1,0x8
    615c:	a9 62 00 00 	l.ori r11,r2,0x0
    6160:	85 21 ff fc 	l.lwz r9,0xfffffffc(r1)
    6164:	44 00 48 00 	l.jr r9
    6168:	84 41 ff f8 	l.lwz r2,0xfffffff8(r1)
    616c:	04 00 08 80 	l.jal 836c <rt_thread_self>
    6170:	15 00 00 00 	l.nop 0x0
    6174:	bc 0b 00 00 	l.sfeqi r11,0x0
    6178:	13 ff ff f8 	l.bf 6158 <_stack+0xfffe1868>
    617c:	15 00 00 00 	l.nop 0x0
    6180:	9c 21 00 08 	l.addi r1,r1,0x8
    6184:	9c 4b 00 48 	l.addi r2,r11,0x48
    6188:	85 21 ff fc 	l.lwz r9,0xfffffffc(r1)
    618c:	a9 62 00 00 	l.ori r11,r2,0x0
    6190:	44 00 48 00 	l.jr r9
    6194:	84 41 ff f8 	l.lwz r2,0xfffffff8(r1)

00006198 <rt_memset>:
    6198:	d7 e1 17 fc 	l.sw 0xfffffffc(r1),r2
    619c:	a8 e3 00 00 	l.ori r7,r3,0x0
    61a0:	9c 21 ff fc 	l.addi r1,r1,0xfffffffc
    61a4:	bc a5 00 03 	l.sfleui r5,0x3
    61a8:	10 00 00 2e 	l.bf 6260 <rt_memset+0xc8>
    61ac:	a4 84 00 ff 	l.andi r4,r4,0xff
    61b0:	a4 c3 00 03 	l.andi r6,r3,0x3
    61b4:	bc 26 00 00 	l.sfnei r6,0x0
    61b8:	10 00 00 2e 	l.bf 6270 <rt_memset+0xd8>
    61bc:	b9 04 00 18 	l.slli r8,r4,0x18
    61c0:	b8 c4 00 08 	l.slli r6,r4,0x8
    61c4:	a9 63 00 00 	l.ori r11,r3,0x0
    61c8:	bc 45 00 0f 	l.sfgtui r5,0xf
    61cc:	e0 c6 20 04 	l.or r6,r6,r4
    61d0:	b8 e6 00 10 	l.slli r7,r6,0x10
    61d4:	0c 00 00 14 	l.bnf 6224 <rt_memset+0x8c>
    61d8:	e0 e7 30 04 	l.or r7,r7,r6
    61dc:	a8 c3 00 00 	l.ori r6,r3,0x0
    61e0:	a9 05 00 00 	l.ori r8,r5,0x0
    61e4:	d4 06 38 00 	l.sw 0x0(r6),r7
    61e8:	d4 06 38 04 	l.sw 0x4(r6),r7
    61ec:	d4 06 38 08 	l.sw 0x8(r6),r7
    61f0:	d4 06 38 0c 	l.sw 0xc(r6),r7
    61f4:	9d 08 ff f0 	l.addi r8,r8,0xfffffff0
    61f8:	bc 48 00 0f 	l.sfgtui r8,0xf
    61fc:	13 ff ff fa 	l.bf 61e4 <_stack+0xfffe18f4>
    6200:	9c c6 00 10 	l.addi r6,r6,0x10
    6204:	9c a5 ff f0 	l.addi r5,r5,0xfffffff0
    6208:	9c 40 ff f0 	l.addi r2,r0,0xfffffff0
    620c:	e1 65 10 03 	l.and r11,r5,r2
    6210:	a4 a5 00 0f 	l.andi r5,r5,0xf
    6214:	9d 6b 00 10 	l.addi r11,r11,0x10
    6218:	bc 45 00 03 	l.sfgtui r5,0x3
    621c:	0c 00 00 10 	l.bnf 625c <rt_memset+0xc4>
    6220:	e1 63 58 00 	l.add r11,r3,r11
    6224:	9c c0 00 00 	l.addi r6,r0,0x0
    6228:	e1 8b 30 00 	l.add r12,r11,r6
    622c:	9c c6 00 04 	l.addi r6,r6,0x4
    6230:	d4 0c 38 00 	l.sw 0x0(r12),r7
    6234:	e1 85 30 02 	l.sub r12,r5,r6
    6238:	bc 4c 00 03 	l.sfgtui r12,0x3
    623c:	13 ff ff fc 	l.bf 622c <_stack+0xfffe193c>
    6240:	e1 8b 30 00 	l.add r12,r11,r6
    6244:	9c a5 ff fc 	l.addi r5,r5,0xfffffffc
    6248:	9c 40 ff fc 	l.addi r2,r0,0xfffffffc
    624c:	e0 c5 10 03 	l.and r6,r5,r2
    6250:	a4 a5 00 03 	l.andi r5,r5,0x3
    6254:	9c c6 00 04 	l.addi r6,r6,0x4
    6258:	e1 6b 30 00 	l.add r11,r11,r6
    625c:	a8 eb 00 00 	l.ori r7,r11,0x0
    6260:	bc 05 00 00 	l.sfeqi r5,0x0
    6264:	10 00 00 0a 	l.bf 628c <rt_memset+0xf4>
    6268:	15 00 00 00 	l.nop 0x0
    626c:	b9 04 00 18 	l.slli r8,r4,0x18
    6270:	9c 80 00 00 	l.addi r4,r0,0x0
    6274:	b9 08 00 98 	l.srai r8,r8,0x18
    6278:	e0 c7 20 00 	l.add r6,r7,r4
    627c:	9c 84 00 01 	l.addi r4,r4,0x1
    6280:	e4 25 20 00 	l.sfne r5,r4
    6284:	13 ff ff fd 	l.bf 6278 <_stack+0xfffe1988>
    6288:	d8 06 40 00 	l.sb 0x0(r6),r8
    628c:	9c 21 00 04 	l.addi r1,r1,0x4
    6290:	a9 63 00 00 	l.ori r11,r3,0x0
    6294:	44 00 48 00 	l.jr r9
    6298:	84 41 ff fc 	l.lwz r2,0xfffffffc(r1)

0000629c <rt_memcpy>:
    629c:	a9 03 00 00 	l.ori r8,r3,0x0
    62a0:	a9 84 00 00 	l.ori r12,r4,0x0
    62a4:	bc a5 00 0f 	l.sfleui r5,0xf
    62a8:	10 00 00 07 	l.bf 62c4 <rt_memcpy+0x28>
    62ac:	a8 e5 00 00 	l.ori r7,r5,0x0
    62b0:	e0 c4 18 04 	l.or r6,r4,r3
    62b4:	a4 c6 00 03 	l.andi r6,r6,0x3
    62b8:	bc 26 00 00 	l.sfnei r6,0x0
    62bc:	0c 00 00 0f 	l.bnf 62f8 <rt_memcpy+0x5c>
    62c0:	a8 c4 00 00 	l.ori r6,r4,0x0
    62c4:	bc 07 00 00 	l.sfeqi r7,0x0
    62c8:	10 00 00 0a 	l.bf 62f0 <rt_memcpy+0x54>
    62cc:	15 00 00 00 	l.nop 0x0
    62d0:	9c 80 00 00 	l.addi r4,r0,0x0
    62d4:	e0 cc 20 00 	l.add r6,r12,r4
    62d8:	e0 a8 20 00 	l.add r5,r8,r4
    62dc:	8c c6 00 00 	l.lbz r6,0x0(r6)
    62e0:	9c 84 00 01 	l.addi r4,r4,0x1
    62e4:	e4 24 38 00 	l.sfne r4,r7
    62e8:	13 ff ff fb 	l.bf 62d4 <_stack+0xfffe19e4>
    62ec:	d8 05 30 00 	l.sb 0x0(r5),r6
    62f0:	44 00 48 00 	l.jr r9
    62f4:	a9 63 00 00 	l.ori r11,r3,0x0
    62f8:	a9 05 00 00 	l.ori r8,r5,0x0
    62fc:	a8 e3 00 00 	l.ori r7,r3,0x0
    6300:	85 66 00 00 	l.lwz r11,0x0(r6)
    6304:	9d 08 ff f0 	l.addi r8,r8,0xfffffff0
    6308:	d4 07 58 00 	l.sw 0x0(r7),r11
    630c:	bc 48 00 0f 	l.sfgtui r8,0xf
    6310:	85 66 00 04 	l.lwz r11,0x4(r6)
    6314:	d4 07 58 04 	l.sw 0x4(r7),r11
    6318:	85 66 00 08 	l.lwz r11,0x8(r6)
    631c:	d4 07 58 08 	l.sw 0x8(r7),r11
    6320:	85 66 00 0c 	l.lwz r11,0xc(r6)
    6324:	9c c6 00 10 	l.addi r6,r6,0x10
    6328:	d4 07 58 0c 	l.sw 0xc(r7),r11
    632c:	13 ff ff f5 	l.bf 6300 <_stack+0xfffe1a10>
    6330:	9c e7 00 10 	l.addi r7,r7,0x10
    6334:	9c a5 ff f0 	l.addi r5,r5,0xfffffff0
    6338:	b8 c5 00 44 	l.srli r6,r5,0x4
    633c:	9d 86 00 01 	l.addi r12,r6,0x1
    6340:	b8 c6 00 04 	l.slli r6,r6,0x4
    6344:	b9 8c 00 04 	l.slli r12,r12,0x4
    6348:	e0 a5 30 02 	l.sub r5,r5,r6
    634c:	e1 03 60 00 	l.add r8,r3,r12
    6350:	a8 e5 00 00 	l.ori r7,r5,0x0
    6354:	bc a5 00 03 	l.sfleui r5,0x3
    6358:	13 ff ff db 	l.bf 62c4 <_stack+0xfffe19d4>
    635c:	e1 84 60 00 	l.add r12,r4,r12
    6360:	9c 80 00 00 	l.addi r4,r0,0x0
    6364:	e0 cc 20 00 	l.add r6,r12,r4
    6368:	e0 e8 20 00 	l.add r7,r8,r4
    636c:	84 c6 00 00 	l.lwz r6,0x0(r6)
    6370:	9c 84 00 04 	l.addi r4,r4,0x4
    6374:	d4 07 30 00 	l.sw 0x0(r7),r6
    6378:	e0 c5 20 02 	l.sub r6,r5,r4
    637c:	bc 46 00 03 	l.sfgtui r6,0x3
    6380:	13 ff ff fa 	l.bf 6368 <_stack+0xfffe1a78>
    6384:	e0 cc 20 00 	l.add r6,r12,r4
    6388:	9c a5 ff fc 	l.addi r5,r5,0xfffffffc
    638c:	b8 e5 00 42 	l.srli r7,r5,0x2
    6390:	9c 87 00 01 	l.addi r4,r7,0x1
    6394:	b8 e7 00 02 	l.slli r7,r7,0x2
    6398:	b8 84 00 02 	l.slli r4,r4,0x2
    639c:	e0 e5 38 02 	l.sub r7,r5,r7
    63a0:	e1 08 20 00 	l.add r8,r8,r4
    63a4:	03 ff ff c8 	l.j 62c4 <_stack+0xfffe19d4>
    63a8:	e1 8c 20 00 	l.add r12,r12,r4

000063ac <rt_memmove>:
    63ac:	d7 e1 17 fc 	l.sw 0xfffffffc(r1),r2
    63b0:	e4 43 20 00 	l.sfgtu r3,r4
    63b4:	0c 00 00 14 	l.bnf 6404 <rt_memmove+0x58>
    63b8:	9c 21 ff fc 	l.addi r1,r1,0xfffffffc
    63bc:	e0 c4 28 00 	l.add r6,r4,r5
    63c0:	e4 63 30 00 	l.sfgeu r3,r6
    63c4:	10 00 00 10 	l.bf 6404 <rt_memmove+0x58>
    63c8:	bc 05 00 00 	l.sfeqi r5,0x0
    63cc:	10 00 00 0a 	l.bf 63f4 <rt_memmove+0x48>
    63d0:	15 00 00 00 	l.nop 0x0
    63d4:	e0 83 28 00 	l.add r4,r3,r5
    63d8:	9c c6 ff ff 	l.addi r6,r6,0xffffffff
    63dc:	9c 84 ff ff 	l.addi r4,r4,0xffffffff
    63e0:	8c 46 00 00 	l.lbz r2,0x0(r6)
    63e4:	9c a5 ff ff 	l.addi r5,r5,0xffffffff
    63e8:	bc 25 00 00 	l.sfnei r5,0x0
    63ec:	13 ff ff fb 	l.bf 63d8 <_stack+0xfffe1ae8>
    63f0:	d8 04 10 00 	l.sb 0x0(r4),r2
    63f4:	9c 21 00 04 	l.addi r1,r1,0x4
    63f8:	a9 63 00 00 	l.ori r11,r3,0x0
    63fc:	44 00 48 00 	l.jr r9
    6400:	84 41 ff fc 	l.lwz r2,0xfffffffc(r1)
    6404:	9c c0 00 00 	l.addi r6,r0,0x0
    6408:	e4 25 30 00 	l.sfne r5,r6
    640c:	0f ff ff fa 	l.bnf 63f4 <_stack+0xfffe1b04>
    6410:	15 00 00 00 	l.nop 0x0
    6414:	e1 04 30 00 	l.add r8,r4,r6
    6418:	e0 e3 30 00 	l.add r7,r3,r6
    641c:	8d 08 00 00 	l.lbz r8,0x0(r8)
    6420:	9c c6 00 01 	l.addi r6,r6,0x1
    6424:	e4 25 30 00 	l.sfne r5,r6
    6428:	13 ff ff fb 	l.bf 6414 <_stack+0xfffe1b24>
    642c:	d8 07 40 00 	l.sb 0x0(r7),r8
    6430:	9c 21 00 04 	l.addi r1,r1,0x4
    6434:	a9 63 00 00 	l.ori r11,r3,0x0
    6438:	44 00 48 00 	l.jr r9
    643c:	84 41 ff fc 	l.lwz r2,0xfffffffc(r1)

00006440 <rt_memcmp>:
    6440:	bc 05 00 00 	l.sfeqi r5,0x0
    6444:	10 00 00 14 	l.bf 6494 <rt_memcmp+0x54>
    6448:	a9 65 00 00 	l.ori r11,r5,0x0
    644c:	8d 63 00 00 	l.lbz r11,0x0(r3)
    6450:	8c c4 00 00 	l.lbz r6,0x0(r4)
    6454:	e1 6b 30 02 	l.sub r11,r11,r6
    6458:	bc 2b 00 00 	l.sfnei r11,0x0
    645c:	0c 00 00 0a 	l.bnf 6484 <rt_memcmp+0x44>
    6460:	9c a5 ff ff 	l.addi r5,r5,0xffffffff
    6464:	00 00 00 0c 	l.j 6494 <rt_memcmp+0x54>
    6468:	9c a5 00 01 	l.addi r5,r5,0x1
    646c:	8c e3 00 00 	l.lbz r7,0x0(r3)
    6470:	8c c4 00 00 	l.lbz r6,0x0(r4)
    6474:	e0 c7 30 02 	l.sub r6,r7,r6
    6478:	bc 26 00 00 	l.sfnei r6,0x0
    647c:	10 00 00 08 	l.bf 649c <rt_memcmp+0x5c>
    6480:	9c a5 ff ff 	l.addi r5,r5,0xffffffff
    6484:	9c 63 00 01 	l.addi r3,r3,0x1
    6488:	bc 25 00 00 	l.sfnei r5,0x0
    648c:	13 ff ff f8 	l.bf 646c <_stack+0xfffe1b7c>
    6490:	9c 84 00 01 	l.addi r4,r4,0x1
    6494:	44 00 48 00 	l.jr r9
    6498:	15 00 00 00 	l.nop 0x0
    649c:	44 00 48 00 	l.jr r9
    64a0:	a9 66 00 00 	l.ori r11,r6,0x0

000064a4 <rt_strstr>:
    64a4:	90 a4 00 00 	l.lbs r5,0x0(r4)
    64a8:	bc 05 00 00 	l.sfeqi r5,0x0
    64ac:	10 00 00 0c 	l.bf 64dc <rt_strstr+0x38>
    64b0:	a8 a4 00 00 	l.ori r5,r4,0x0
    64b4:	9c a5 00 01 	l.addi r5,r5,0x1
    64b8:	90 c5 00 00 	l.lbs r6,0x0(r5)
    64bc:	bc 26 00 00 	l.sfnei r6,0x0
    64c0:	13 ff ff fe 	l.bf 64b8 <_stack+0xfffe1bc8>
    64c4:	9c a5 00 01 	l.addi r5,r5,0x1
    64c8:	9c a5 ff ff 	l.addi r5,r5,0xffffffff
    64cc:	e1 65 20 02 	l.sub r11,r5,r4
    64d0:	bc 0b 00 00 	l.sfeqi r11,0x0
    64d4:	0c 00 00 04 	l.bnf 64e4 <rt_strstr+0x40>
    64d8:	15 00 00 00 	l.nop 0x0
    64dc:	44 00 48 00 	l.jr r9
    64e0:	a9 63 00 00 	l.ori r11,r3,0x0
    64e4:	90 a3 00 00 	l.lbs r5,0x0(r3)
    64e8:	bc 05 00 00 	l.sfeqi r5,0x0
    64ec:	10 00 00 08 	l.bf 650c <rt_strstr+0x68>
    64f0:	a9 a3 00 00 	l.ori r13,r3,0x0
    64f4:	9d ad 00 01 	l.addi r13,r13,0x1
    64f8:	90 ad 00 00 	l.lbs r5,0x0(r13)
    64fc:	bc 25 00 00 	l.sfnei r5,0x0
    6500:	13 ff ff fe 	l.bf 64f8 <_stack+0xfffe1c08>
    6504:	9d ad 00 01 	l.addi r13,r13,0x1
    6508:	9d ad ff ff 	l.addi r13,r13,0xffffffff
    650c:	e1 ad 18 02 	l.sub r13,r13,r3
    6510:	e5 4b 68 00 	l.sfgts r11,r13
    6514:	10 00 00 1c 	l.bf 6584 <rt_strstr+0xe0>
    6518:	bc 0b 00 00 	l.sfeqi r11,0x0
    651c:	13 ff ff f0 	l.bf 64dc <_stack+0xfffe1bec>
    6520:	15 00 00 00 	l.nop 0x0
    6524:	8d e4 00 00 	l.lbz r15,0x0(r4)
    6528:	8c a3 00 00 	l.lbz r5,0x0(r3)
    652c:	e4 2f 28 00 	l.sfne r15,r5
    6530:	10 00 00 0f 	l.bf 656c <rt_strstr+0xc8>
    6534:	a8 c3 00 00 	l.ori r6,r3,0x0
    6538:	a8 ab 00 00 	l.ori r5,r11,0x0
    653c:	a8 e4 00 00 	l.ori r7,r4,0x0
    6540:	9c a5 ff ff 	l.addi r5,r5,0xffffffff
    6544:	9c c6 00 01 	l.addi r6,r6,0x1
    6548:	bc 25 00 00 	l.sfnei r5,0x0
    654c:	0f ff ff e4 	l.bnf 64dc <_stack+0xfffe1bec>
    6550:	9c e7 00 01 	l.addi r7,r7,0x1
    6554:	8d 86 00 00 	l.lbz r12,0x0(r6)
    6558:	8d 07 00 00 	l.lbz r8,0x0(r7)
    655c:	e4 2c 40 00 	l.sfne r12,r8
    6560:	0f ff ff f9 	l.bnf 6544 <_stack+0xfffe1c54>
    6564:	9c a5 ff ff 	l.addi r5,r5,0xffffffff
    6568:	9c a5 00 01 	l.addi r5,r5,0x1
    656c:	9d ad ff ff 	l.addi r13,r13,0xffffffff
    6570:	e5 4b 68 00 	l.sfgts r11,r13
    6574:	10 00 00 04 	l.bf 6584 <rt_strstr+0xe0>
    6578:	15 00 00 00 	l.nop 0x0
    657c:	03 ff ff eb 	l.j 6528 <_stack+0xfffe1c38>
    6580:	9c 63 00 01 	l.addi r3,r3,0x1
    6584:	03 ff ff d6 	l.j 64dc <_stack+0xfffe1bec>
    6588:	9c 60 00 00 	l.addi r3,r0,0x0

0000658c <rt_strcasecmp>:
    658c:	00 00 00 05 	l.j 65a0 <rt_strcasecmp+0x14>
    6590:	9c c0 00 00 	l.addi r6,r0,0x0
    6594:	bc 25 00 00 	l.sfnei r5,0x0
    6598:	0c 00 00 15 	l.bnf 65ec <rt_strcasecmp+0x60>
    659c:	15 00 00 00 	l.nop 0x0
    65a0:	e0 a3 30 00 	l.add r5,r3,r6
    65a4:	e0 e4 30 00 	l.add r7,r4,r6
    65a8:	8c a5 00 00 	l.lbz r5,0x0(r5)
    65ac:	8d 67 00 00 	l.lbz r11,0x0(r7)
    65b0:	9d 05 ff bf 	l.addi r8,r5,0xffffffbf
    65b4:	bc 48 00 19 	l.sfgtui r8,0x19
    65b8:	10 00 00 03 	l.bf 65c4 <rt_strcasecmp+0x38>
    65bc:	9c eb ff bf 	l.addi r7,r11,0xffffffbf
    65c0:	9c a5 00 20 	l.addi r5,r5,0x20
    65c4:	bc 47 00 19 	l.sfgtui r7,0x19
    65c8:	10 00 00 04 	l.bf 65d8 <rt_strcasecmp+0x4c>
    65cc:	e0 e5 58 05 	l.xor r7,r5,r11
    65d0:	9d 6b 00 20 	l.addi r11,r11,0x20
    65d4:	e0 e5 58 05 	l.xor r7,r5,r11
    65d8:	e1 00 38 02 	l.sub r8,r0,r7
    65dc:	e0 e8 38 04 	l.or r7,r8,r7
    65e0:	bd 87 00 00 	l.sfltsi r7,0x0
    65e4:	0f ff ff ec 	l.bnf 6594 <_stack+0xfffe1ca4>
    65e8:	9c c6 00 01 	l.addi r6,r6,0x1
    65ec:	44 00 48 00 	l.jr r9
    65f0:	e1 65 58 02 	l.sub r11,r5,r11

000065f4 <rt_strncpy>:
    65f4:	d7 e1 17 fc 	l.sw 0xfffffffc(r1),r2
    65f8:	bc 05 00 00 	l.sfeqi r5,0x0
    65fc:	10 00 00 0d 	l.bf 6630 <rt_strncpy+0x3c>
    6600:	9c 21 ff fc 	l.addi r1,r1,0xfffffffc
    6604:	a8 c3 00 00 	l.ori r6,r3,0x0
    6608:	90 e4 00 00 	l.lbs r7,0x0(r4)
    660c:	d8 06 38 00 	l.sb 0x0(r6),r7
    6610:	bc 27 00 00 	l.sfnei r7,0x0
    6614:	9c c6 00 01 	l.addi r6,r6,0x1
    6618:	0c 00 00 0a 	l.bnf 6640 <rt_strncpy+0x4c>
    661c:	9c 84 00 01 	l.addi r4,r4,0x1
    6620:	9c a5 ff ff 	l.addi r5,r5,0xffffffff
    6624:	bc 25 00 00 	l.sfnei r5,0x0
    6628:	13 ff ff f8 	l.bf 6608 <_stack+0xfffe1d18>
    662c:	15 00 00 00 	l.nop 0x0
    6630:	9c 21 00 04 	l.addi r1,r1,0x4
    6634:	a9 63 00 00 	l.ori r11,r3,0x0
    6638:	44 00 48 00 	l.jr r9
    663c:	84 41 ff fc 	l.lwz r2,0xfffffffc(r1)
    6640:	9c a5 ff ff 	l.addi r5,r5,0xffffffff
    6644:	bc 05 00 00 	l.sfeqi r5,0x0
    6648:	13 ff ff fa 	l.bf 6630 <_stack+0xfffe1d40>
    664c:	15 00 00 00 	l.nop 0x0
    6650:	e0 86 38 00 	l.add r4,r6,r7
    6654:	9c 40 00 00 	l.addi r2,r0,0x0
    6658:	9c e7 00 01 	l.addi r7,r7,0x1
    665c:	e4 27 28 00 	l.sfne r7,r5
    6660:	13 ff ff fc 	l.bf 6650 <_stack+0xfffe1d60>
    6664:	d8 04 10 00 	l.sb 0x0(r4),r2
    6668:	9c 21 00 04 	l.addi r1,r1,0x4
    666c:	a9 63 00 00 	l.ori r11,r3,0x0
    6670:	44 00 48 00 	l.jr r9
    6674:	84 41 ff fc 	l.lwz r2,0xfffffffc(r1)

00006678 <rt_strncmp>:
    6678:	bc 05 00 00 	l.sfeqi r5,0x0
    667c:	10 00 00 1f 	l.bf 66f8 <rt_strncmp+0x80>
    6680:	a8 c5 00 00 	l.ori r6,r5,0x0
    6684:	90 a3 00 00 	l.lbs r5,0x0(r3)
    6688:	8d 64 00 00 	l.lbz r11,0x0(r4)
    668c:	e1 65 58 02 	l.sub r11,r5,r11
    6690:	b9 6b 00 18 	l.slli r11,r11,0x18
    6694:	b9 6b 00 98 	l.srai r11,r11,0x18
    6698:	bc 0b 00 00 	l.sfeqi r11,0x0
    669c:	0c 00 00 19 	l.bnf 6700 <rt_strncmp+0x88>
    66a0:	bc 05 00 00 	l.sfeqi r5,0x0
    66a4:	10 00 00 15 	l.bf 66f8 <rt_strncmp+0x80>
    66a8:	15 00 00 00 	l.nop 0x0
    66ac:	9c 84 00 01 	l.addi r4,r4,0x1
    66b0:	00 00 00 0e 	l.j 66e8 <rt_strncmp+0x70>
    66b4:	9c 63 00 01 	l.addi r3,r3,0x1
    66b8:	90 a3 00 00 	l.lbs r5,0x0(r3)
    66bc:	8d 64 00 00 	l.lbz r11,0x0(r4)
    66c0:	e1 65 58 02 	l.sub r11,r5,r11
    66c4:	9c 84 00 01 	l.addi r4,r4,0x1
    66c8:	b9 6b 00 18 	l.slli r11,r11,0x18
    66cc:	b9 6b 00 98 	l.srai r11,r11,0x18
    66d0:	bc 0b 00 00 	l.sfeqi r11,0x0
    66d4:	0c 00 00 0b 	l.bnf 6700 <rt_strncmp+0x88>
    66d8:	9c 63 00 01 	l.addi r3,r3,0x1
    66dc:	bc 05 00 00 	l.sfeqi r5,0x0
    66e0:	10 00 00 06 	l.bf 66f8 <rt_strncmp+0x80>
    66e4:	15 00 00 00 	l.nop 0x0
    66e8:	9c c6 ff ff 	l.addi r6,r6,0xffffffff
    66ec:	bc 26 00 00 	l.sfnei r6,0x0
    66f0:	13 ff ff f2 	l.bf 66b8 <_stack+0xfffe1dc8>
    66f4:	a8 a6 00 00 	l.ori r5,r6,0x0
    66f8:	44 00 48 00 	l.jr r9
    66fc:	a9 65 00 00 	l.ori r11,r5,0x0
    6700:	a8 ab 00 00 	l.ori r5,r11,0x0
    6704:	44 00 48 00 	l.jr r9
    6708:	a9 65 00 00 	l.ori r11,r5,0x0

0000670c <rt_strcmp>:
    670c:	00 00 00 08 	l.j 672c <rt_strcmp+0x20>
    6710:	90 a3 00 00 	l.lbs r5,0x0(r3)
    6714:	90 c4 00 00 	l.lbs r6,0x0(r4)
    6718:	e4 05 30 00 	l.sfeq r5,r6
    671c:	0c 00 00 08 	l.bnf 673c <rt_strcmp+0x30>
    6720:	9c 84 00 01 	l.addi r4,r4,0x1
    6724:	9c 63 00 01 	l.addi r3,r3,0x1
    6728:	90 a3 00 00 	l.lbs r5,0x0(r3)
    672c:	bc 25 00 00 	l.sfnei r5,0x0
    6730:	13 ff ff f9 	l.bf 6714 <_stack+0xfffe1e24>
    6734:	15 00 00 00 	l.nop 0x0
    6738:	90 c4 00 00 	l.lbs r6,0x0(r4)
    673c:	44 00 48 00 	l.jr r9
    6740:	e1 65 30 02 	l.sub r11,r5,r6

00006744 <rt_strlen>:
    6744:	91 63 00 00 	l.lbs r11,0x0(r3)
    6748:	bc 0b 00 00 	l.sfeqi r11,0x0
    674c:	10 00 00 0a 	l.bf 6774 <rt_strlen+0x30>
    6750:	15 00 00 00 	l.nop 0x0
    6754:	a9 63 00 00 	l.ori r11,r3,0x0
    6758:	9d 6b 00 01 	l.addi r11,r11,0x1
    675c:	90 8b 00 00 	l.lbs r4,0x0(r11)
    6760:	bc 24 00 00 	l.sfnei r4,0x0
    6764:	13 ff ff fe 	l.bf 675c <_stack+0xfffe1e6c>
    6768:	9d 6b 00 01 	l.addi r11,r11,0x1
    676c:	9d 6b ff ff 	l.addi r11,r11,0xffffffff
    6770:	e1 6b 18 02 	l.sub r11,r11,r3
    6774:	44 00 48 00 	l.jr r9
    6778:	15 00 00 00 	l.nop 0x0

0000677c <rt_strdup>:
    677c:	d7 e1 77 f4 	l.sw 0xfffffff4(r1),r14
    6780:	d7 e1 87 f8 	l.sw 0xfffffff8(r1),r16
    6784:	d7 e1 4f fc 	l.sw 0xfffffffc(r1),r9
    6788:	d7 e1 17 f0 	l.sw 0xfffffff0(r1),r2
    678c:	a9 c3 00 00 	l.ori r14,r3,0x0
    6790:	90 43 00 00 	l.lbs r2,0x0(r3)
    6794:	9c 21 ff f0 	l.addi r1,r1,0xfffffff0
    6798:	bc 02 00 00 	l.sfeqi r2,0x0
    679c:	10 00 00 0b 	l.bf 67c8 <rt_strdup+0x4c>
    67a0:	9e 00 00 01 	l.addi r16,r0,0x1
    67a4:	a8 a3 00 00 	l.ori r5,r3,0x0
    67a8:	9c a5 00 01 	l.addi r5,r5,0x1
    67ac:	90 c5 00 00 	l.lbs r6,0x0(r5)
    67b0:	bc 26 00 00 	l.sfnei r6,0x0
    67b4:	13 ff ff fe 	l.bf 67ac <_stack+0xfffe1ebc>
    67b8:	9c a5 00 01 	l.addi r5,r5,0x1
    67bc:	9c a5 ff ff 	l.addi r5,r5,0xffffffff
    67c0:	e0 a5 70 02 	l.sub r5,r5,r14
    67c4:	9e 05 00 01 	l.addi r16,r5,0x1
    67c8:	04 00 01 40 	l.jal 6cc8 <rt_malloc>
    67cc:	a8 70 00 00 	l.ori r3,r16,0x0
    67d0:	bc 0b 00 00 	l.sfeqi r11,0x0
    67d4:	10 00 00 06 	l.bf 67ec <rt_strdup+0x70>
    67d8:	a8 4b 00 00 	l.ori r2,r11,0x0
    67dc:	a8 6b 00 00 	l.ori r3,r11,0x0
    67e0:	a8 8e 00 00 	l.ori r4,r14,0x0
    67e4:	07 ff fe ae 	l.jal 629c <_stack+0xfffe19ac>
    67e8:	a8 b0 00 00 	l.ori r5,r16,0x0
    67ec:	9c 21 00 10 	l.addi r1,r1,0x10
    67f0:	a9 62 00 00 	l.ori r11,r2,0x0
    67f4:	85 21 ff fc 	l.lwz r9,0xfffffffc(r1)
    67f8:	84 41 ff f0 	l.lwz r2,0xfffffff0(r1)
    67fc:	85 c1 ff f4 	l.lwz r14,0xfffffff4(r1)
    6800:	44 00 48 00 	l.jr r9
    6804:	86 01 ff f8 	l.lwz r16,0xfffffff8(r1)

00006808 <rt_snprintf>:
    6808:	d7 e1 4f fc 	l.sw 0xfffffffc(r1),r9
    680c:	9c 21 ff fc 	l.addi r1,r1,0xfffffffc
    6810:	07 ff fc a8 	l.jal 5ab0 <_stack+0xfffe11c0>
    6814:	9c c1 00 04 	l.addi r6,r1,0x4
    6818:	9c 21 00 04 	l.addi r1,r1,0x4
    681c:	85 21 ff fc 	l.lwz r9,0xfffffffc(r1)
    6820:	44 00 48 00 	l.jr r9
    6824:	15 00 00 00 	l.nop 0x0

00006828 <rt_vsprintf>:
    6828:	d7 e1 4f fc 	l.sw 0xfffffffc(r1),r9
    682c:	9c 21 ff fc 	l.addi r1,r1,0xfffffffc
    6830:	a8 e4 00 00 	l.ori r7,r4,0x0
    6834:	9c 21 00 04 	l.addi r1,r1,0x4
    6838:	a8 c5 00 00 	l.ori r6,r5,0x0
    683c:	9c 80 ff ff 	l.addi r4,r0,0xffffffff
    6840:	85 21 ff fc 	l.lwz r9,0xfffffffc(r1)
    6844:	03 ff fc 9b 	l.j 5ab0 <_stack+0xfffe11c0>
    6848:	a8 a7 00 00 	l.ori r5,r7,0x0

0000684c <rt_sprintf>:
    684c:	d7 e1 4f fc 	l.sw 0xfffffffc(r1),r9
    6850:	9c 21 ff fc 	l.addi r1,r1,0xfffffffc
    6854:	07 ff ff f5 	l.jal 6828 <_stack+0xfffe1f38>
    6858:	9c a1 00 04 	l.addi r5,r1,0x4
    685c:	9c 21 00 04 	l.addi r1,r1,0x4
    6860:	85 21 ff fc 	l.lwz r9,0xfffffffc(r1)
    6864:	44 00 48 00 	l.jr r9
    6868:	15 00 00 00 	l.nop 0x0

0000686c <rt_console_get_device>:
    686c:	18 60 00 01 	l.movhi r3,0x1
    6870:	a8 63 b0 94 	l.ori r3,r3,0xb094
    6874:	44 00 48 00 	l.jr r9
    6878:	85 63 00 00 	l.lwz r11,0x0(r3)

0000687c <rt_console_set_device>:
    687c:	d7 e1 77 f4 	l.sw 0xfffffff4(r1),r14
    6880:	19 c0 00 01 	l.movhi r14,0x1
    6884:	d7 e1 17 f0 	l.sw 0xfffffff0(r1),r2
    6888:	d7 e1 87 f8 	l.sw 0xfffffff8(r1),r16
    688c:	d7 e1 4f fc 	l.sw 0xfffffffc(r1),r9
    6890:	a9 ce b0 94 	l.ori r14,r14,0xb094
    6894:	9c 21 ff f0 	l.addi r1,r1,0xfffffff0
    6898:	07 ff f0 fd 	l.jal 2c8c <_stack+0xfffde39c>
    689c:	86 0e 00 00 	l.lwz r16,0x0(r14)
    68a0:	bc 0b 00 00 	l.sfeqi r11,0x0
    68a4:	10 00 00 0c 	l.bf 68d4 <rt_console_set_device+0x58>
    68a8:	a8 4b 00 00 	l.ori r2,r11,0x0
    68ac:	84 6e 00 00 	l.lwz r3,0x0(r14)
    68b0:	bc 03 00 00 	l.sfeqi r3,0x0
    68b4:	10 00 00 04 	l.bf 68c4 <rt_console_set_device+0x48>
    68b8:	15 00 00 00 	l.nop 0x0
    68bc:	07 ff f1 be 	l.jal 2fb4 <_stack+0xfffde6c4>
    68c0:	15 00 00 00 	l.nop 0x0
    68c4:	a8 62 00 00 	l.ori r3,r2,0x0
    68c8:	9c 80 00 03 	l.addi r4,r0,0x3
    68cc:	07 ff f1 76 	l.jal 2ea4 <_stack+0xfffde5b4>
    68d0:	d4 0e 10 00 	l.sw 0x0(r14),r2
    68d4:	9c 21 00 10 	l.addi r1,r1,0x10
    68d8:	a9 70 00 00 	l.ori r11,r16,0x0
    68dc:	85 21 ff fc 	l.lwz r9,0xfffffffc(r1)
    68e0:	84 41 ff f0 	l.lwz r2,0xfffffff0(r1)
    68e4:	85 c1 ff f4 	l.lwz r14,0xfffffff4(r1)
    68e8:	44 00 48 00 	l.jr r9
    68ec:	86 01 ff f8 	l.lwz r16,0xfffffff8(r1)
    68f0:	44 00 48 00 	l.jr r9
    68f4:	15 00 00 00 	l.nop 0x0

000068f8 <rt_kprintf>:
    68f8:	d7 e1 4f fc 	l.sw 0xfffffffc(r1),r9
    68fc:	a8 a3 00 00 	l.ori r5,r3,0x0
    6900:	9c 21 ff fc 	l.addi r1,r1,0xfffffffc
    6904:	18 60 00 01 	l.movhi r3,0x1
    6908:	9c 80 00 ff 	l.addi r4,r0,0xff
    690c:	a8 63 b0 98 	l.ori r3,r3,0xb098
    6910:	07 ff fc 68 	l.jal 5ab0 <_stack+0xfffe11c0>
    6914:	9c c1 00 04 	l.addi r6,r1,0x4
    6918:	18 60 00 01 	l.movhi r3,0x1
    691c:	a8 63 b0 94 	l.ori r3,r3,0xb094
    6920:	84 63 00 00 	l.lwz r3,0x0(r3)
    6924:	bc 23 00 00 	l.sfnei r3,0x0
    6928:	0c 00 00 0e 	l.bnf 6960 <rt_kprintf+0x68>
    692c:	bc ab 00 ff 	l.sfleui r11,0xff
    6930:	0c 00 00 0a 	l.bnf 6958 <rt_kprintf+0x60>
    6934:	a8 cb 00 00 	l.ori r6,r11,0x0
    6938:	18 a0 00 01 	l.movhi r5,0x1
    693c:	9c 80 00 00 	l.addi r4,r0,0x0
    6940:	07 ff f1 c7 	l.jal 305c <_stack+0xfffde76c>
    6944:	a8 a5 b0 98 	l.ori r5,r5,0xb098
    6948:	9c 21 00 04 	l.addi r1,r1,0x4
    694c:	85 21 ff fc 	l.lwz r9,0xfffffffc(r1)
    6950:	44 00 48 00 	l.jr r9
    6954:	15 00 00 00 	l.nop 0x0
    6958:	03 ff ff f8 	l.j 6938 <_stack+0xfffe2048>
    695c:	9c c0 00 ff 	l.addi r6,r0,0xff
    6960:	18 60 00 01 	l.movhi r3,0x1
    6964:	07 ff ee 21 	l.jal 21e8 <_stack+0xfffdd8f8>
    6968:	a8 63 b0 98 	l.ori r3,r3,0xb098
    696c:	9c 21 00 04 	l.addi r1,r1,0x4
    6970:	85 21 ff fc 	l.lwz r9,0xfffffffc(r1)
    6974:	44 00 48 00 	l.jr r9
    6978:	15 00 00 00 	l.nop 0x0

0000697c <rt_show_version>:
    697c:	18 60 00 01 	l.movhi r3,0x1
    6980:	d7 e1 4f fc 	l.sw 0xfffffffc(r1),r9
    6984:	d7 e1 17 f8 	l.sw 0xfffffff8(r1),r2
    6988:	a8 63 9a e7 	l.ori r3,r3,0x9ae7
    698c:	9c 21 ff e8 	l.addi r1,r1,0xffffffe8
    6990:	07 ff ff da 	l.jal 68f8 <_stack+0xfffe2008>
    6994:	9c 40 00 00 	l.addi r2,r0,0x0
    6998:	18 60 00 01 	l.movhi r3,0x1
    699c:	07 ff ff d7 	l.jal 68f8 <_stack+0xfffe2008>
    69a0:	a8 63 9a f0 	l.ori r3,r3,0x9af0
    69a4:	9c 80 00 01 	l.addi r4,r0,0x1
    69a8:	18 60 00 01 	l.movhi r3,0x1
    69ac:	d4 01 20 00 	l.sw 0x0(r1),r4
    69b0:	d4 01 20 04 	l.sw 0x4(r1),r4
    69b4:	18 80 00 01 	l.movhi r4,0x1
    69b8:	a8 63 9b 14 	l.ori r3,r3,0x9b14
    69bc:	a8 84 9b 32 	l.ori r4,r4,0x9b32
    69c0:	d4 01 10 08 	l.sw 0x8(r1),r2
    69c4:	07 ff ff cd 	l.jal 68f8 <_stack+0xfffe2008>
    69c8:	d4 01 20 0c 	l.sw 0xc(r1),r4
    69cc:	18 60 00 01 	l.movhi r3,0x1
    69d0:	9c 21 00 18 	l.addi r1,r1,0x18
    69d4:	a8 63 9b 3e 	l.ori r3,r3,0x9b3e
    69d8:	85 21 ff fc 	l.lwz r9,0xfffffffc(r1)
    69dc:	03 ff ff c7 	l.j 68f8 <_stack+0xfffe2008>
    69e0:	84 41 ff f8 	l.lwz r2,0xfffffff8(r1)

000069e4 <rt_malloc_align>:
    69e4:	d7 e1 17 f8 	l.sw 0xfffffff8(r1),r2
    69e8:	9c 63 00 03 	l.addi r3,r3,0x3
    69ec:	9c 44 00 03 	l.addi r2,r4,0x3
    69f0:	9c 80 ff fc 	l.addi r4,r0,0xfffffffc
    69f4:	d7 e1 4f fc 	l.sw 0xfffffffc(r1),r9
    69f8:	e0 42 20 03 	l.and r2,r2,r4
    69fc:	e0 63 20 03 	l.and r3,r3,r4
    6a00:	9c 21 ff f8 	l.addi r1,r1,0xfffffff8
    6a04:	04 00 00 b1 	l.jal 6cc8 <rt_malloc>
    6a08:	e0 62 18 00 	l.add r3,r2,r3
    6a0c:	bc 0b 00 00 	l.sfeqi r11,0x0
    6a10:	10 00 00 0a 	l.bf 6a38 <rt_malloc_align+0x54>
    6a14:	9c 62 ff ff 	l.addi r3,r2,0xffffffff
    6a18:	e0 8b 18 03 	l.and r4,r11,r3
    6a1c:	bc 24 00 00 	l.sfnei r4,0x0
    6a20:	0c 00 00 0a 	l.bnf 6a48 <rt_malloc_align+0x64>
    6a24:	e0 6b 18 00 	l.add r3,r11,r3
    6a28:	e0 40 10 02 	l.sub r2,r0,r2
    6a2c:	e0 43 10 03 	l.and r2,r3,r2
    6a30:	d7 e2 5f fc 	l.sw 0xfffffffc(r2),r11
    6a34:	a9 62 00 00 	l.ori r11,r2,0x0
    6a38:	9c 21 00 08 	l.addi r1,r1,0x8
    6a3c:	85 21 ff fc 	l.lwz r9,0xfffffffc(r1)
    6a40:	44 00 48 00 	l.jr r9
    6a44:	84 41 ff f8 	l.lwz r2,0xfffffff8(r1)
    6a48:	03 ff ff fa 	l.j 6a30 <_stack+0xfffe2140>
    6a4c:	e0 4b 10 00 	l.add r2,r11,r2

00006a50 <rt_free_align>:
    6a50:	d7 e1 4f fc 	l.sw 0xfffffffc(r1),r9
    6a54:	9c 21 ff fc 	l.addi r1,r1,0xfffffffc
    6a58:	84 63 ff fc 	l.lwz r3,0xfffffffc(r3)
    6a5c:	9c 21 00 04 	l.addi r1,r1,0x4
    6a60:	85 21 ff fc 	l.lwz r9,0xfffffffc(r1)
    6a64:	00 00 01 46 	l.j 6f7c <rt_free>
    6a68:	15 00 00 00 	l.nop 0x0

00006a6c <plug_holes>:
    6a6c:	18 80 00 01 	l.movhi r4,0x1
    6a70:	84 a3 00 04 	l.lwz r5,0x4(r3)
    6a74:	a8 84 b1 ac 	l.ori r4,r4,0xb1ac
    6a78:	84 84 00 00 	l.lwz r4,0x0(r4)
    6a7c:	e0 a4 28 00 	l.add r5,r4,r5
    6a80:	e4 03 28 00 	l.sfeq r3,r5
    6a84:	10 00 00 16 	l.bf 6adc <plug_holes+0x70>
    6a88:	15 00 00 00 	l.nop 0x0
    6a8c:	94 c5 00 02 	l.lhz r6,0x2(r5)
    6a90:	bc 26 00 00 	l.sfnei r6,0x0
    6a94:	10 00 00 12 	l.bf 6adc <plug_holes+0x70>
    6a98:	18 c0 00 01 	l.movhi r6,0x1
    6a9c:	a8 c6 b1 b0 	l.ori r6,r6,0xb1b0
    6aa0:	84 c6 00 00 	l.lwz r6,0x0(r6)
    6aa4:	e4 05 30 00 	l.sfeq r5,r6
    6aa8:	10 00 00 0d 	l.bf 6adc <plug_holes+0x70>
    6aac:	18 c0 00 01 	l.movhi r6,0x1
    6ab0:	a8 c6 b1 ec 	l.ori r6,r6,0xb1ec
    6ab4:	84 e6 00 00 	l.lwz r7,0x0(r6)
    6ab8:	e4 27 28 00 	l.sfne r7,r5
    6abc:	0c 00 00 20 	l.bnf 6b3c <plug_holes+0xd0>
    6ac0:	15 00 00 00 	l.nop 0x0
    6ac4:	84 e5 00 04 	l.lwz r7,0x4(r5)
    6ac8:	e0 c3 20 02 	l.sub r6,r3,r4
    6acc:	d4 03 38 04 	l.sw 0x4(r3),r7
    6ad0:	84 a5 00 04 	l.lwz r5,0x4(r5)
    6ad4:	e0 a4 28 00 	l.add r5,r4,r5
    6ad8:	d4 05 30 08 	l.sw 0x8(r5),r6
    6adc:	84 a3 00 08 	l.lwz r5,0x8(r3)
    6ae0:	e0 a4 28 00 	l.add r5,r4,r5
    6ae4:	e4 05 18 00 	l.sfeq r5,r3
    6ae8:	10 00 00 11 	l.bf 6b2c <plug_holes+0xc0>
    6aec:	15 00 00 00 	l.nop 0x0
    6af0:	94 c5 00 02 	l.lhz r6,0x2(r5)
    6af4:	bc 26 00 00 	l.sfnei r6,0x0
    6af8:	10 00 00 0d 	l.bf 6b2c <plug_holes+0xc0>
    6afc:	18 c0 00 01 	l.movhi r6,0x1
    6b00:	a8 c6 b1 ec 	l.ori r6,r6,0xb1ec
    6b04:	84 e6 00 00 	l.lwz r7,0x0(r6)
    6b08:	e4 27 18 00 	l.sfne r7,r3
    6b0c:	0c 00 00 0a 	l.bnf 6b34 <plug_holes+0xc8>
    6b10:	15 00 00 00 	l.nop 0x0
    6b14:	84 e3 00 04 	l.lwz r7,0x4(r3)
    6b18:	e0 c5 20 02 	l.sub r6,r5,r4
    6b1c:	d4 05 38 04 	l.sw 0x4(r5),r7
    6b20:	84 63 00 04 	l.lwz r3,0x4(r3)
    6b24:	e0 84 18 00 	l.add r4,r4,r3
    6b28:	d4 04 30 08 	l.sw 0x8(r4),r6
    6b2c:	44 00 48 00 	l.jr r9
    6b30:	15 00 00 00 	l.nop 0x0
    6b34:	03 ff ff f8 	l.j 6b14 <_stack+0xfffe2224>
    6b38:	d4 06 28 00 	l.sw 0x0(r6),r5
    6b3c:	03 ff ff e2 	l.j 6ac4 <_stack+0xfffe21d4>
    6b40:	d4 06 18 00 	l.sw 0x0(r6),r3

00006b44 <list_mem>:
    6b44:	18 80 00 01 	l.movhi r4,0x1
    6b48:	18 60 00 01 	l.movhi r3,0x1
    6b4c:	a8 84 b1 9c 	l.ori r4,r4,0xb19c
    6b50:	d7 e1 4f fc 	l.sw 0xfffffffc(r1),r9
    6b54:	84 84 00 00 	l.lwz r4,0x0(r4)
    6b58:	9c 21 ff f8 	l.addi r1,r1,0xfffffff8
    6b5c:	a8 63 9b 68 	l.ori r3,r3,0x9b68
    6b60:	07 ff ff 66 	l.jal 68f8 <_stack+0xfffe2008>
    6b64:	d4 01 20 00 	l.sw 0x0(r1),r4
    6b68:	18 80 00 01 	l.movhi r4,0x1
    6b6c:	18 60 00 01 	l.movhi r3,0x1
    6b70:	a8 84 b1 a0 	l.ori r4,r4,0xb1a0
    6b74:	a8 63 9b 7a 	l.ori r3,r3,0x9b7a
    6b78:	84 84 00 00 	l.lwz r4,0x0(r4)
    6b7c:	07 ff ff 5f 	l.jal 68f8 <_stack+0xfffe2008>
    6b80:	d4 01 20 00 	l.sw 0x0(r1),r4
    6b84:	18 80 00 01 	l.movhi r4,0x1
    6b88:	18 60 00 01 	l.movhi r3,0x1
    6b8c:	a8 84 b1 a4 	l.ori r4,r4,0xb1a4
    6b90:	a8 63 9b 8c 	l.ori r3,r3,0x9b8c
    6b94:	84 84 00 00 	l.lwz r4,0x0(r4)
    6b98:	07 ff ff 58 	l.jal 68f8 <_stack+0xfffe2008>
    6b9c:	d4 01 20 00 	l.sw 0x0(r1),r4
    6ba0:	9c 21 00 08 	l.addi r1,r1,0x8
    6ba4:	85 21 ff fc 	l.lwz r9,0xfffffffc(r1)
    6ba8:	44 00 48 00 	l.jr r9
    6bac:	15 00 00 00 	l.nop 0x0

00006bb0 <rt_malloc_sethook>:
    6bb0:	18 80 00 01 	l.movhi r4,0x1
    6bb4:	a8 84 b1 f0 	l.ori r4,r4,0xb1f0
